	.text
	.file	"cpu.c"
	.globl	createCpu               # -- Begin function createCpu
	.p2align	4, 0x90
	.type	createCpu,@function
createCpu:                              # @createCpu
	.cfi_startproc
# %bb.0:
	movl	$0, (%rdi)
	movw	$-32768, 4(%rdi)        # imm = 0x8000
	movb	$36, 6(%rdi)
	xorps	%xmm0, %xmm0
	movups	%xmm0, 7(%rdi)
	movb	$0, 23(%rdi)
	movq	stdout(%rip), %rcx
	movl	$.L.str, %edi
	movl	$12, %esi
	movl	$1, %edx
	jmp	fwrite                  # TAILCALL
.Lfunc_end0:
	.size	createCpu, .Lfunc_end0-createCpu
	.cfi_endproc
                                        # -- End function
	.globl	add_mos6502_device      # -- Begin function add_mos6502_device
	.p2align	4, 0x90
	.type	add_mos6502_device,@function
add_mos6502_device:                     # @add_mos6502_device
	.cfi_startproc
# %bb.0:
	pushq	%r14
	.cfi_def_cfa_offset 16
	pushq	%rbx
	.cfi_def_cfa_offset 24
	pushq	%rax
	.cfi_def_cfa_offset 32
	.cfi_offset %rbx, -24
	.cfi_offset %r14, -16
	movq	%rsi, %r14
	movq	%rdi, %rbx
	movq	8(%rdi), %rdi
	movq	16(%rbx), %rsi
	addq	$1, %rsi
	movq	%rsi, 16(%rbx)
	shlq	$5, %rsi
	callq	realloc
	testq	%rax, %rax
	je	.LBB1_1
# %bb.2:
	movq	%rax, 8(%rbx)
	movq	16(%rbx), %rcx
	shlq	$5, %rcx
	movups	(%r14), %xmm0
	movups	16(%r14), %xmm1
	movups	%xmm1, -16(%rcx,%rax)
	movups	%xmm0, -32(%rcx,%rax)
	movb	$1, %al
                                        # kill: def $al killed $al killed $eax
	addq	$8, %rsp
	.cfi_def_cfa_offset 24
	popq	%rbx
	.cfi_def_cfa_offset 16
	popq	%r14
	.cfi_def_cfa_offset 8
	retq
.LBB1_1:
	.cfi_def_cfa_offset 32
	movq	8(%rbx), %rdi
	callq	free
	xorl	%eax, %eax
                                        # kill: def $al killed $al killed $eax
	addq	$8, %rsp
	.cfi_def_cfa_offset 24
	popq	%rbx
	.cfi_def_cfa_offset 16
	popq	%r14
	.cfi_def_cfa_offset 8
	retq
.Lfunc_end1:
	.size	add_mos6502_device, .Lfunc_end1-add_mos6502_device
	.cfi_endproc
                                        # -- End function
	.globl	read_mos6502            # -- Begin function read_mos6502
	.p2align	4, 0x90
	.type	read_mos6502,@function
read_mos6502:                           # @read_mos6502
	.cfi_startproc
# %bb.0:
	pushq	%rbp
	.cfi_def_cfa_offset 16
	pushq	%r15
	.cfi_def_cfa_offset 24
	pushq	%r14
	.cfi_def_cfa_offset 32
	pushq	%r12
	.cfi_def_cfa_offset 40
	pushq	%rbx
	.cfi_def_cfa_offset 48
	.cfi_offset %rbx, -48
	.cfi_offset %r12, -40
	.cfi_offset %r14, -32
	.cfi_offset %r15, -24
	.cfi_offset %rbp, -16
	movq	16(%rdi), %rcx
	testq	%rcx, %rcx
	je	.LBB2_1
# %bb.3:
	movl	%esi, %r15d
	movq	%rdi, %r12
	movzwl	%r15w, %r14d
	movl	$24, %ebp
	xorl	%eax, %eax
	xorl	%ebx, %ebx
	jmp	.LBB2_4
	.p2align	4, 0x90
.LBB2_7:                                #   in Loop: Header=BB2_4 Depth=1
	addq	$1, %rbx
	addq	$32, %rbp
	cmpq	%rcx, %rbx
	jae	.LBB2_2
.LBB2_4:                                # =>This Inner Loop Header: Depth=1
	movq	8(%r12), %rdx
	movzwl	-8(%rdx,%rbp), %esi
	cmpw	%r15w, %si
	ja	.LBB2_7
# %bb.5:                                #   in Loop: Header=BB2_4 Depth=1
	movzwl	-6(%rdx,%rbp), %edi
	addl	%esi, %edi
	cmpl	%r14d, %edi
	jbe	.LBB2_7
# %bb.6:                                #   in Loop: Header=BB2_4 Depth=1
	movq	(%rdx,%rbp), %rdi
	movl	%r15d, %eax
	subl	%esi, %eax
	movzwl	%ax, %esi
	callq	*-24(%rdx,%rbp)
                                        # kill: def $al killed $al def $rax
	movq	16(%r12), %rcx
	jmp	.LBB2_7
.LBB2_1:
	xorl	%eax, %eax
.LBB2_2:
                                        # kill: def $al killed $al killed $rax
	popq	%rbx
	.cfi_def_cfa_offset 40
	popq	%r12
	.cfi_def_cfa_offset 32
	popq	%r14
	.cfi_def_cfa_offset 24
	popq	%r15
	.cfi_def_cfa_offset 16
	popq	%rbp
	.cfi_def_cfa_offset 8
	retq
.Lfunc_end2:
	.size	read_mos6502, .Lfunc_end2-read_mos6502
	.cfi_endproc
                                        # -- End function
	.globl	write_mos6502           # -- Begin function write_mos6502
	.p2align	4, 0x90
	.type	write_mos6502,@function
write_mos6502:                          # @write_mos6502
	.cfi_startproc
# %bb.0:
	pushq	%rbp
	.cfi_def_cfa_offset 16
	pushq	%r15
	.cfi_def_cfa_offset 24
	pushq	%r14
	.cfi_def_cfa_offset 32
	pushq	%r13
	.cfi_def_cfa_offset 40
	pushq	%r12
	.cfi_def_cfa_offset 48
	pushq	%rbx
	.cfi_def_cfa_offset 56
	pushq	%rax
	.cfi_def_cfa_offset 64
	.cfi_offset %rbx, -56
	.cfi_offset %r12, -48
	.cfi_offset %r13, -40
	.cfi_offset %r14, -32
	.cfi_offset %r15, -24
	.cfi_offset %rbp, -16
	movq	16(%rdi), %rax
	testq	%rax, %rax
	je	.LBB3_6
# %bb.1:
	movl	%esi, %r12d
	movq	%rdi, %r13
	movzwl	%r12w, %r15d
	movl	$24, %ebp
	xorl	%ebx, %ebx
	movzbl	%dl, %r14d
	jmp	.LBB3_2
	.p2align	4, 0x90
.LBB3_5:                                #   in Loop: Header=BB3_2 Depth=1
	addq	$1, %rbx
	addq	$32, %rbp
	cmpq	%rax, %rbx
	jae	.LBB3_6
.LBB3_2:                                # =>This Inner Loop Header: Depth=1
	movq	8(%r13), %rcx
	movzwl	-8(%rcx,%rbp), %edx
	cmpw	%r12w, %dx
	ja	.LBB3_5
# %bb.3:                                #   in Loop: Header=BB3_2 Depth=1
	movzwl	-6(%rcx,%rbp), %esi
	addl	%edx, %esi
	cmpl	%r15d, %esi
	jbe	.LBB3_5
# %bb.4:                                #   in Loop: Header=BB3_2 Depth=1
	movq	(%rcx,%rbp), %rdi
	movl	%r12d, %eax
	subl	%edx, %eax
	movzwl	%ax, %esi
	movl	%r14d, %edx
	callq	*-16(%rcx,%rbp)
	movq	16(%r13), %rax
	jmp	.LBB3_5
.LBB3_6:
	addq	$8, %rsp
	.cfi_def_cfa_offset 56
	popq	%rbx
	.cfi_def_cfa_offset 48
	popq	%r12
	.cfi_def_cfa_offset 40
	popq	%r13
	.cfi_def_cfa_offset 32
	popq	%r14
	.cfi_def_cfa_offset 24
	popq	%r15
	.cfi_def_cfa_offset 16
	popq	%rbp
	.cfi_def_cfa_offset 8
	retq
.Lfunc_end3:
	.size	write_mos6502, .Lfunc_end3-write_mos6502
	.cfi_endproc
                                        # -- End function
	.globl	printPage               # -- Begin function printPage
	.p2align	4, 0x90
	.type	printPage,@function
printPage:                              # @printPage
	.cfi_startproc
# %bb.0:
	pushq	%rbp
	.cfi_def_cfa_offset 16
	pushq	%r15
	.cfi_def_cfa_offset 24
	pushq	%r14
	.cfi_def_cfa_offset 32
	pushq	%r13
	.cfi_def_cfa_offset 40
	pushq	%r12
	.cfi_def_cfa_offset 48
	pushq	%rbx
	.cfi_def_cfa_offset 56
	subq	$312, %rsp              # imm = 0x138
	.cfi_def_cfa_offset 368
	.cfi_offset %rbx, -56
	.cfi_offset %r12, -48
	.cfi_offset %r13, -40
	.cfi_offset %r14, -32
	.cfi_offset %r15, -24
	.cfi_offset %rbp, -16
	movq	%rdi, %rbx
	movl	%esi, 4(%rsp)           # 4-byte Spill
	movl	%esi, %eax
	shlq	$8, %rax
	movq	%rax, 16(%rsp)          # 8-byte Spill
	movq	16(%rdi), %rcx
	xorl	%eax, %eax
	jmp	.LBB4_1
	.p2align	4, 0x90
.LBB4_4:                                #   in Loop: Header=BB4_1 Depth=1
	movq	8(%rsp), %rax           # 8-byte Reload
	addq	$1, %rax
	cmpq	$16, %rax
	je	.LBB4_5
.LBB4_1:                                # =>This Loop Header: Depth=1
                                        #     Child Loop BB4_2 Depth 2
                                        #       Child Loop BB4_9 Depth 3
	movq	%rax, 8(%rsp)           # 8-byte Spill
	shlq	$4, %rax
	movq	%rcx, %rdx
	xorl	%esi, %esi
	movq	%rax, 24(%rsp)          # 8-byte Spill
	jmp	.LBB4_2
	.p2align	4, 0x90
.LBB4_3:                                #   in Loop: Header=BB4_2 Depth=2
	xorl	%edx, %edx
	xorl	%eax, %eax
.LBB4_13:                               #   in Loop: Header=BB4_2 Depth=2
	movq	32(%rsp), %rsi          # 8-byte Reload
	movb	%al, 48(%rsp,%rsi)
	movq	40(%rsp), %rsi          # 8-byte Reload
	addq	$1, %rsi
	cmpq	$16, %rsi
	movq	24(%rsp), %rax          # 8-byte Reload
	je	.LBB4_4
.LBB4_2:                                #   Parent Loop BB4_1 Depth=1
                                        # =>  This Loop Header: Depth=2
                                        #       Child Loop BB4_9 Depth 3
	leaq	(%rsi,%rax), %rdi
	testq	%rdx, %rdx
	movq	%rsi, 40(%rsp)          # 8-byte Spill
	movq	%rdi, 32(%rsp)          # 8-byte Spill
	je	.LBB4_3
# %bb.8:                                #   in Loop: Header=BB4_2 Depth=2
	leal	(%rsi,%rax), %r15d
	movq	16(%rsp), %rax          # 8-byte Reload
	leaq	(%rdi,%rax), %r12
	addl	%eax, %r15d
	movl	$24, %r13d
	xorl	%eax, %eax
	xorl	%r14d, %r14d
	jmp	.LBB4_9
	.p2align	4, 0x90
.LBB4_12:                               #   in Loop: Header=BB4_9 Depth=3
	addq	$1, %r14
	addq	$32, %r13
	cmpq	%rdx, %r14
	jae	.LBB4_13
.LBB4_9:                                #   Parent Loop BB4_1 Depth=1
                                        #     Parent Loop BB4_2 Depth=2
                                        # =>    This Inner Loop Header: Depth=3
	movq	8(%rbx), %rbp
	movzwl	-8(%rbp,%r13), %esi
	cmpw	%r15w, %si
	ja	.LBB4_12
# %bb.10:                               #   in Loop: Header=BB4_9 Depth=3
	movzwl	-6(%rbp,%r13), %edi
	addq	%rsi, %rdi
	cmpq	%r12, %rdi
	jbe	.LBB4_12
# %bb.11:                               #   in Loop: Header=BB4_9 Depth=3
	movq	(%rbp,%r13), %rdi
	movl	%r15d, %eax
	subl	%esi, %eax
	movzwl	%ax, %esi
	callq	*-24(%rbp,%r13)
                                        # kill: def $al killed $al def $rax
	movq	16(%rbx), %rcx
	movq	%rcx, %rdx
	jmp	.LBB4_12
.LBB4_5:
	movl	$.L.str.1, %edi
	movl	4(%rsp), %esi           # 4-byte Reload
	xorl	%eax, %eax
	callq	printf
	xorl	%ebx, %ebx
	.p2align	4, 0x90
.LBB4_6:                                # =>This Inner Loop Header: Depth=1
	movzbl	48(%rsp,%rbx), %esi
	movl	$.L.str.2, %edi
	xorl	%eax, %eax
	callq	printf
	movzbl	49(%rsp,%rbx), %esi
	movl	$.L.str.2, %edi
	xorl	%eax, %eax
	callq	printf
	movzbl	50(%rsp,%rbx), %esi
	movl	$.L.str.2, %edi
	xorl	%eax, %eax
	callq	printf
	movzbl	51(%rsp,%rbx), %esi
	movl	$.L.str.2, %edi
	xorl	%eax, %eax
	callq	printf
	movzbl	52(%rsp,%rbx), %esi
	movl	$.L.str.2, %edi
	xorl	%eax, %eax
	callq	printf
	movzbl	53(%rsp,%rbx), %esi
	movl	$.L.str.2, %edi
	xorl	%eax, %eax
	callq	printf
	movzbl	54(%rsp,%rbx), %esi
	movl	$.L.str.2, %edi
	xorl	%eax, %eax
	callq	printf
	movzbl	55(%rsp,%rbx), %esi
	movl	$.L.str.2, %edi
	xorl	%eax, %eax
	callq	printf
	movzbl	56(%rsp,%rbx), %esi
	movl	$.L.str.2, %edi
	xorl	%eax, %eax
	callq	printf
	movzbl	57(%rsp,%rbx), %esi
	movl	$.L.str.2, %edi
	xorl	%eax, %eax
	callq	printf
	movzbl	58(%rsp,%rbx), %esi
	movl	$.L.str.2, %edi
	xorl	%eax, %eax
	callq	printf
	movzbl	59(%rsp,%rbx), %esi
	movl	$.L.str.2, %edi
	xorl	%eax, %eax
	callq	printf
	movzbl	60(%rsp,%rbx), %esi
	movl	$.L.str.2, %edi
	xorl	%eax, %eax
	callq	printf
	movzbl	61(%rsp,%rbx), %esi
	movl	$.L.str.2, %edi
	xorl	%eax, %eax
	callq	printf
	movzbl	62(%rsp,%rbx), %esi
	movl	$.L.str.2, %edi
	xorl	%eax, %eax
	callq	printf
	movzbl	63(%rsp,%rbx), %esi
	movl	$.L.str.2, %edi
	xorl	%eax, %eax
	callq	printf
	movl	$10, %edi
	callq	putchar
	addq	$16, %rbx
	cmpq	$256, %rbx              # imm = 0x100
	jne	.LBB4_6
# %bb.7:
	addq	$312, %rsp              # imm = 0x138
	.cfi_def_cfa_offset 56
	popq	%rbx
	.cfi_def_cfa_offset 48
	popq	%r12
	.cfi_def_cfa_offset 40
	popq	%r13
	.cfi_def_cfa_offset 32
	popq	%r14
	.cfi_def_cfa_offset 24
	popq	%r15
	.cfi_def_cfa_offset 16
	popq	%rbp
	.cfi_def_cfa_offset 8
	retq
.Lfunc_end4:
	.size	printPage, .Lfunc_end4-printPage
	.cfi_endproc
                                        # -- End function
	.globl	printRegisters          # -- Begin function printRegisters
	.p2align	4, 0x90
	.type	printRegisters,@function
printRegisters:                         # @printRegisters
	.cfi_startproc
# %bb.0:
	pushq	%rax
	.cfi_def_cfa_offset 16
	movq	stdout(%rip), %rax
	movzbl	(%rdi), %edx
	movzbl	1(%rdi), %ecx
	movzbl	2(%rdi), %r8d
	movzbl	3(%rdi), %r9d
	orl	$256, %r9d              # imm = 0x100
	movzwl	4(%rdi), %r10d
	movzbl	6(%rdi), %r11d
	movl	$.L.str.4, %esi
	movq	%rax, %rdi
	movl	$0, %eax
	pushq	%r11
	.cfi_adjust_cfa_offset 8
	pushq	%r10
	.cfi_adjust_cfa_offset 8
	callq	fprintf
	addq	$16, %rsp
	.cfi_adjust_cfa_offset -16
	popq	%rax
	.cfi_def_cfa_offset 8
	retq
.Lfunc_end5:
	.size	printRegisters, .Lfunc_end5-printRegisters
	.cfi_endproc
                                        # -- End function
	.globl	triggerNMI              # -- Begin function triggerNMI
	.p2align	4, 0x90
	.type	triggerNMI,@function
triggerNMI:                             # @triggerNMI
	.cfi_startproc
# %bb.0:
	pushq	%rbp
	.cfi_def_cfa_offset 16
	pushq	%r15
	.cfi_def_cfa_offset 24
	pushq	%r14
	.cfi_def_cfa_offset 32
	pushq	%r13
	.cfi_def_cfa_offset 40
	pushq	%r12
	.cfi_def_cfa_offset 48
	pushq	%rbx
	.cfi_def_cfa_offset 56
	pushq	%rax
	.cfi_def_cfa_offset 64
	.cfi_offset %rbx, -56
	.cfi_offset %r12, -48
	.cfi_offset %r13, -40
	.cfi_offset %r14, -32
	.cfi_offset %r15, -24
	.cfi_offset %rbp, -16
	movq	%rdi, %r12
	movl	4(%rdi), %r14d
	addl	$2, %r14d
	movw	%r14w, 4(%rdi)
	movzbl	3(%rdi), %r15d
	leal	-1(%r15), %eax
	movb	%al, 3(%rdi)
	movq	16(%rdi), %rcx
	testq	%rcx, %rcx
	je	.LBB6_13
# %bb.1:
	shrl	$8, %r14d
	orl	$256, %r15d             # imm = 0x100
	movl	$24, %ebx
	xorl	%ebp, %ebp
	jmp	.LBB6_3
	.p2align	4, 0x90
.LBB6_2:                                #   in Loop: Header=BB6_3 Depth=1
	addq	$1, %rbp
	addq	$32, %rbx
	cmpq	%rcx, %rbp
	jae	.LBB6_6
.LBB6_3:                                # =>This Inner Loop Header: Depth=1
	movq	8(%r12), %rax
	movzwl	-8(%rax,%rbx), %edx
	cmpw	%dx, %r15w
	jb	.LBB6_2
# %bb.4:                                #   in Loop: Header=BB6_3 Depth=1
	movzwl	-6(%rax,%rbx), %esi
	addl	%edx, %esi
	cmpl	%r15d, %esi
	jbe	.LBB6_2
# %bb.5:                                #   in Loop: Header=BB6_3 Depth=1
	movq	(%rax,%rbx), %rdi
	movzwl	%r15w, %ecx
	subl	%edx, %ecx
	movzwl	%cx, %esi
	movzbl	%r14b, %edx
	callq	*-16(%rax,%rbx)
	movq	16(%r12), %rcx
	jmp	.LBB6_2
.LBB6_6:
	movb	4(%r12), %r14b
	movzbl	3(%r12), %r15d
	leal	-1(%r15), %eax
	movb	%al, 3(%r12)
	testq	%rcx, %rcx
	je	.LBB6_14
# %bb.7:
	orl	$256, %r15d             # imm = 0x100
	movl	$24, %ebx
	xorl	%ebp, %ebp
	jmp	.LBB6_9
	.p2align	4, 0x90
.LBB6_8:                                #   in Loop: Header=BB6_9 Depth=1
	addq	$1, %rbp
	addq	$32, %rbx
	cmpq	%rcx, %rbp
	jae	.LBB6_12
.LBB6_9:                                # =>This Inner Loop Header: Depth=1
	movq	8(%r12), %rax
	movzwl	-8(%rax,%rbx), %edx
	cmpw	%dx, %r15w
	jb	.LBB6_8
# %bb.10:                               #   in Loop: Header=BB6_9 Depth=1
	movzwl	-6(%rax,%rbx), %esi
	addl	%edx, %esi
	cmpl	%r15d, %esi
	jbe	.LBB6_8
# %bb.11:                               #   in Loop: Header=BB6_9 Depth=1
	movq	(%rax,%rbx), %rdi
	movzwl	%r15w, %ecx
	subl	%edx, %ecx
	movzwl	%cx, %esi
	movzbl	%r14b, %edx
	callq	*-16(%rax,%rbx)
	movq	16(%r12), %rcx
	jmp	.LBB6_8
.LBB6_12:
	movb	3(%r12), %al
	jmp	.LBB6_15
.LBB6_13:
	leal	-2(%r15), %eax
	movb	%al, 3(%r12)
.LBB6_14:
	xorl	%ecx, %ecx
.LBB6_15:
	movb	6(%r12), %dl
	andb	$-49, %dl
	leal	32(%rdx), %r14d
	movb	%r14b, 6(%r12)
	leal	-1(%rax), %esi
	movb	%sil, 3(%r12)
	testq	%rcx, %rcx
	je	.LBB6_33
# %bb.16:
	movzbl	%al, %r13d
	orl	$256, %r13d             # imm = 0x100
	movzwl	%r13w, %r15d
	movl	$24, %ebx
	xorl	%ebp, %ebp
	jmp	.LBB6_18
	.p2align	4, 0x90
.LBB6_17:                               #   in Loop: Header=BB6_18 Depth=1
	addq	$1, %rbp
	addq	$32, %rbx
	cmpq	%rcx, %rbp
	jae	.LBB6_21
.LBB6_18:                               # =>This Inner Loop Header: Depth=1
	movq	8(%r12), %rax
	movzwl	-8(%rax,%rbx), %edx
	cmpw	%dx, %r13w
	jb	.LBB6_17
# %bb.19:                               #   in Loop: Header=BB6_18 Depth=1
	movzwl	-6(%rax,%rbx), %esi
	addl	%edx, %esi
	cmpl	%r15d, %esi
	jbe	.LBB6_17
# %bb.20:                               #   in Loop: Header=BB6_18 Depth=1
	movq	(%rax,%rbx), %rdi
	movl	%r15d, %ecx
	subl	%edx, %ecx
	movzwl	%cx, %esi
	movzbl	%r14b, %edx
	callq	*-16(%rax,%rbx)
	movq	16(%r12), %rcx
	jmp	.LBB6_17
.LBB6_21:
	orb	$4, 6(%r12)
	testq	%rcx, %rcx
	je	.LBB6_34
# %bb.22:
	movl	$24, %ebp
	xorl	%eax, %eax
	xorl	%ebx, %ebx
	jmp	.LBB6_24
	.p2align	4, 0x90
.LBB6_23:                               #   in Loop: Header=BB6_24 Depth=1
	addq	$1, %rbx
	addq	$32, %rbp
	cmpq	%rcx, %rbx
	jae	.LBB6_27
.LBB6_24:                               # =>This Inner Loop Header: Depth=1
	movq	8(%r12), %rdx
	movzwl	-8(%rdx,%rbp), %esi
	cmpl	$65530, %esi            # imm = 0xFFFA
	ja	.LBB6_23
# %bb.25:                               #   in Loop: Header=BB6_24 Depth=1
	movzwl	-6(%rdx,%rbp), %edi
	addl	%esi, %edi
	cmpl	$65531, %edi            # imm = 0xFFFB
	jb	.LBB6_23
# %bb.26:                               #   in Loop: Header=BB6_24 Depth=1
	movq	(%rdx,%rbp), %rdi
	movl	$-6, %eax
	subl	%esi, %eax
	movzwl	%ax, %esi
	callq	*-24(%rdx,%rbp)
                                        # kill: def $al killed $al def $rax
	movq	16(%r12), %rcx
	jmp	.LBB6_23
.LBB6_27:
	movzbl	%al, %edx
	movw	%dx, 4(%r12)
	testq	%rcx, %rcx
	je	.LBB6_36
# %bb.28:
	movl	$24, %ebp
	xorl	%eax, %eax
	xorl	%ebx, %ebx
	jmp	.LBB6_30
	.p2align	4, 0x90
.LBB6_29:                               #   in Loop: Header=BB6_30 Depth=1
	addq	$1, %rbx
	addq	$32, %rbp
	cmpq	%rcx, %rbx
	jae	.LBB6_35
.LBB6_30:                               # =>This Inner Loop Header: Depth=1
	movq	8(%r12), %rdx
	movzwl	-8(%rdx,%rbp), %esi
	cmpl	$65531, %esi            # imm = 0xFFFB
	ja	.LBB6_29
# %bb.31:                               #   in Loop: Header=BB6_30 Depth=1
	movzwl	-6(%rdx,%rbp), %edi
	addl	%esi, %edi
	cmpl	$65532, %edi            # imm = 0xFFFC
	jb	.LBB6_29
# %bb.32:                               #   in Loop: Header=BB6_30 Depth=1
	movq	(%rdx,%rbp), %rdi
	movl	$-5, %eax
	subl	%esi, %eax
	movzwl	%ax, %esi
	callq	*-24(%rdx,%rbp)
                                        # kill: def $al killed $al def $rax
	movq	16(%r12), %rcx
	jmp	.LBB6_29
.LBB6_33:
	orb	$36, %dl
	movb	%dl, 6(%r12)
.LBB6_34:
	movw	$0, 4(%r12)
	xorl	%edx, %edx
.LBB6_36:
	xorl	%eax, %eax
	jmp	.LBB6_37
.LBB6_35:
	movzwl	4(%r12), %edx
.LBB6_37:
	movzbl	%al, %eax
	shll	$8, %eax
	orl	%eax, %edx
	movw	%dx, 4(%r12)
	addq	$8, %rsp
	.cfi_def_cfa_offset 56
	popq	%rbx
	.cfi_def_cfa_offset 48
	popq	%r12
	.cfi_def_cfa_offset 40
	popq	%r13
	.cfi_def_cfa_offset 32
	popq	%r14
	.cfi_def_cfa_offset 24
	popq	%r15
	.cfi_def_cfa_offset 16
	popq	%rbp
	.cfi_def_cfa_offset 8
	retq
.Lfunc_end6:
	.size	triggerNMI, .Lfunc_end6-triggerNMI
	.cfi_endproc
                                        # -- End function
	.globl	triggerRST              # -- Begin function triggerRST
	.p2align	4, 0x90
	.type	triggerRST,@function
triggerRST:                             # @triggerRST
	.cfi_startproc
# %bb.0:
	pushq	%rbp
	.cfi_def_cfa_offset 16
	pushq	%r15
	.cfi_def_cfa_offset 24
	pushq	%r14
	.cfi_def_cfa_offset 32
	pushq	%r13
	.cfi_def_cfa_offset 40
	pushq	%r12
	.cfi_def_cfa_offset 48
	pushq	%rbx
	.cfi_def_cfa_offset 56
	pushq	%rax
	.cfi_def_cfa_offset 64
	.cfi_offset %rbx, -56
	.cfi_offset %r12, -48
	.cfi_offset %r13, -40
	.cfi_offset %r14, -32
	.cfi_offset %r15, -24
	.cfi_offset %rbp, -16
	movq	%rdi, %r12
	movl	4(%rdi), %r14d
	addl	$2, %r14d
	movw	%r14w, 4(%rdi)
	movzbl	3(%rdi), %r15d
	leal	-1(%r15), %eax
	movb	%al, 3(%rdi)
	movq	16(%rdi), %rcx
	testq	%rcx, %rcx
	je	.LBB7_13
# %bb.1:
	shrl	$8, %r14d
	orl	$256, %r15d             # imm = 0x100
	movl	$24, %ebx
	xorl	%ebp, %ebp
	jmp	.LBB7_3
	.p2align	4, 0x90
.LBB7_2:                                #   in Loop: Header=BB7_3 Depth=1
	addq	$1, %rbp
	addq	$32, %rbx
	cmpq	%rcx, %rbp
	jae	.LBB7_6
.LBB7_3:                                # =>This Inner Loop Header: Depth=1
	movq	8(%r12), %rax
	movzwl	-8(%rax,%rbx), %edx
	cmpw	%dx, %r15w
	jb	.LBB7_2
# %bb.4:                                #   in Loop: Header=BB7_3 Depth=1
	movzwl	-6(%rax,%rbx), %esi
	addl	%edx, %esi
	cmpl	%r15d, %esi
	jbe	.LBB7_2
# %bb.5:                                #   in Loop: Header=BB7_3 Depth=1
	movq	(%rax,%rbx), %rdi
	movzwl	%r15w, %ecx
	subl	%edx, %ecx
	movzwl	%cx, %esi
	movzbl	%r14b, %edx
	callq	*-16(%rax,%rbx)
	movq	16(%r12), %rcx
	jmp	.LBB7_2
.LBB7_6:
	movb	4(%r12), %r14b
	movzbl	3(%r12), %r15d
	leal	-1(%r15), %eax
	movb	%al, 3(%r12)
	testq	%rcx, %rcx
	je	.LBB7_14
# %bb.7:
	orl	$256, %r15d             # imm = 0x100
	movl	$24, %ebx
	xorl	%ebp, %ebp
	jmp	.LBB7_9
	.p2align	4, 0x90
.LBB7_8:                                #   in Loop: Header=BB7_9 Depth=1
	addq	$1, %rbp
	addq	$32, %rbx
	cmpq	%rcx, %rbp
	jae	.LBB7_12
.LBB7_9:                                # =>This Inner Loop Header: Depth=1
	movq	8(%r12), %rax
	movzwl	-8(%rax,%rbx), %edx
	cmpw	%dx, %r15w
	jb	.LBB7_8
# %bb.10:                               #   in Loop: Header=BB7_9 Depth=1
	movzwl	-6(%rax,%rbx), %esi
	addl	%edx, %esi
	cmpl	%r15d, %esi
	jbe	.LBB7_8
# %bb.11:                               #   in Loop: Header=BB7_9 Depth=1
	movq	(%rax,%rbx), %rdi
	movzwl	%r15w, %ecx
	subl	%edx, %ecx
	movzwl	%cx, %esi
	movzbl	%r14b, %edx
	callq	*-16(%rax,%rbx)
	movq	16(%r12), %rcx
	jmp	.LBB7_8
.LBB7_12:
	movb	3(%r12), %al
	jmp	.LBB7_15
.LBB7_13:
	leal	-2(%r15), %eax
	movb	%al, 3(%r12)
.LBB7_14:
	xorl	%ecx, %ecx
.LBB7_15:
	movb	6(%r12), %r14b
	leal	-1(%rax), %edx
	movb	%dl, 3(%r12)
	testq	%rcx, %rcx
	je	.LBB7_33
# %bb.16:
	movzbl	%al, %r13d
	orl	$256, %r13d             # imm = 0x100
	movzwl	%r13w, %r15d
	movl	$24, %ebx
	xorl	%ebp, %ebp
	jmp	.LBB7_18
	.p2align	4, 0x90
.LBB7_17:                               #   in Loop: Header=BB7_18 Depth=1
	addq	$1, %rbp
	addq	$32, %rbx
	cmpq	%rcx, %rbp
	jae	.LBB7_21
.LBB7_18:                               # =>This Inner Loop Header: Depth=1
	movq	8(%r12), %rax
	movzwl	-8(%rax,%rbx), %edx
	cmpw	%dx, %r13w
	jb	.LBB7_17
# %bb.19:                               #   in Loop: Header=BB7_18 Depth=1
	movzwl	-6(%rax,%rbx), %esi
	addl	%edx, %esi
	cmpl	%r15d, %esi
	jbe	.LBB7_17
# %bb.20:                               #   in Loop: Header=BB7_18 Depth=1
	movq	(%rax,%rbx), %rdi
	movl	%r15d, %ecx
	subl	%edx, %ecx
	movzwl	%cx, %esi
	movzbl	%r14b, %edx
	callq	*-16(%rax,%rbx)
	movq	16(%r12), %rcx
	jmp	.LBB7_17
.LBB7_21:
	orb	$4, 6(%r12)
	testq	%rcx, %rcx
	je	.LBB7_34
# %bb.22:
	movl	$24, %ebp
	xorl	%eax, %eax
	xorl	%ebx, %ebx
	jmp	.LBB7_24
	.p2align	4, 0x90
.LBB7_23:                               #   in Loop: Header=BB7_24 Depth=1
	addq	$1, %rbx
	addq	$32, %rbp
	cmpq	%rcx, %rbx
	jae	.LBB7_27
.LBB7_24:                               # =>This Inner Loop Header: Depth=1
	movq	8(%r12), %rdx
	movzwl	-8(%rdx,%rbp), %esi
	cmpl	$65532, %esi            # imm = 0xFFFC
	ja	.LBB7_23
# %bb.25:                               #   in Loop: Header=BB7_24 Depth=1
	movzwl	-6(%rdx,%rbp), %edi
	addl	%esi, %edi
	cmpl	$65533, %edi            # imm = 0xFFFD
	jb	.LBB7_23
# %bb.26:                               #   in Loop: Header=BB7_24 Depth=1
	movq	(%rdx,%rbp), %rdi
	movl	$-4, %eax
	subl	%esi, %eax
	movzwl	%ax, %esi
	callq	*-24(%rdx,%rbp)
                                        # kill: def $al killed $al def $rax
	movq	16(%r12), %rcx
	jmp	.LBB7_23
.LBB7_27:
	movzbl	%al, %edx
	movw	%dx, 4(%r12)
	testq	%rcx, %rcx
	je	.LBB7_36
# %bb.28:
	movl	$24, %ebp
	xorl	%eax, %eax
	xorl	%ebx, %ebx
	jmp	.LBB7_30
	.p2align	4, 0x90
.LBB7_29:                               #   in Loop: Header=BB7_30 Depth=1
	addq	$1, %rbx
	addq	$32, %rbp
	cmpq	%rcx, %rbx
	jae	.LBB7_35
.LBB7_30:                               # =>This Inner Loop Header: Depth=1
	movq	8(%r12), %rdx
	movzwl	-8(%rdx,%rbp), %esi
	cmpl	$65533, %esi            # imm = 0xFFFD
	ja	.LBB7_29
# %bb.31:                               #   in Loop: Header=BB7_30 Depth=1
	movzwl	-6(%rdx,%rbp), %edi
	addl	%esi, %edi
	cmpl	$65534, %edi            # imm = 0xFFFE
	jb	.LBB7_29
# %bb.32:                               #   in Loop: Header=BB7_30 Depth=1
	movq	(%rdx,%rbp), %rdi
	movl	$-3, %eax
	subl	%esi, %eax
	movzwl	%ax, %esi
	callq	*-24(%rdx,%rbp)
                                        # kill: def $al killed $al def $rax
	movq	16(%r12), %rcx
	jmp	.LBB7_29
.LBB7_33:
	orb	$4, %r14b
	movb	%r14b, 6(%r12)
.LBB7_34:
	movw	$0, 4(%r12)
	xorl	%edx, %edx
.LBB7_36:
	xorl	%eax, %eax
	jmp	.LBB7_37
.LBB7_35:
	movzwl	4(%r12), %edx
.LBB7_37:
	movzbl	%al, %eax
	shll	$8, %eax
	orl	%eax, %edx
	movw	%dx, 4(%r12)
	addq	$8, %rsp
	.cfi_def_cfa_offset 56
	popq	%rbx
	.cfi_def_cfa_offset 48
	popq	%r12
	.cfi_def_cfa_offset 40
	popq	%r13
	.cfi_def_cfa_offset 32
	popq	%r14
	.cfi_def_cfa_offset 24
	popq	%r15
	.cfi_def_cfa_offset 16
	popq	%rbp
	.cfi_def_cfa_offset 8
	retq
.Lfunc_end7:
	.size	triggerRST, .Lfunc_end7-triggerRST
	.cfi_endproc
                                        # -- End function
	.globl	triggerIRQ              # -- Begin function triggerIRQ
	.p2align	4, 0x90
	.type	triggerIRQ,@function
triggerIRQ:                             # @triggerIRQ
	.cfi_startproc
# %bb.0:
	pushq	%rbp
	.cfi_def_cfa_offset 16
	pushq	%r15
	.cfi_def_cfa_offset 24
	pushq	%r14
	.cfi_def_cfa_offset 32
	pushq	%r13
	.cfi_def_cfa_offset 40
	pushq	%r12
	.cfi_def_cfa_offset 48
	pushq	%rbx
	.cfi_def_cfa_offset 56
	pushq	%rax
	.cfi_def_cfa_offset 64
	.cfi_offset %rbx, -56
	.cfi_offset %r12, -48
	.cfi_offset %r13, -40
	.cfi_offset %r14, -32
	.cfi_offset %r15, -24
	.cfi_offset %rbp, -16
	movq	%rdi, %r12
	movl	4(%rdi), %r14d
	addl	$2, %r14d
	movw	%r14w, 4(%rdi)
	movzbl	3(%rdi), %r15d
	leal	-1(%r15), %eax
	movb	%al, 3(%rdi)
	movq	16(%rdi), %rcx
	testq	%rcx, %rcx
	je	.LBB8_13
# %bb.1:
	shrl	$8, %r14d
	orl	$256, %r15d             # imm = 0x100
	movl	$24, %ebx
	xorl	%ebp, %ebp
	jmp	.LBB8_3
	.p2align	4, 0x90
.LBB8_2:                                #   in Loop: Header=BB8_3 Depth=1
	addq	$1, %rbp
	addq	$32, %rbx
	cmpq	%rcx, %rbp
	jae	.LBB8_6
.LBB8_3:                                # =>This Inner Loop Header: Depth=1
	movq	8(%r12), %rax
	movzwl	-8(%rax,%rbx), %edx
	cmpw	%dx, %r15w
	jb	.LBB8_2
# %bb.4:                                #   in Loop: Header=BB8_3 Depth=1
	movzwl	-6(%rax,%rbx), %esi
	addl	%edx, %esi
	cmpl	%r15d, %esi
	jbe	.LBB8_2
# %bb.5:                                #   in Loop: Header=BB8_3 Depth=1
	movq	(%rax,%rbx), %rdi
	movzwl	%r15w, %ecx
	subl	%edx, %ecx
	movzwl	%cx, %esi
	movzbl	%r14b, %edx
	callq	*-16(%rax,%rbx)
	movq	16(%r12), %rcx
	jmp	.LBB8_2
.LBB8_6:
	movb	4(%r12), %r14b
	movzbl	3(%r12), %r15d
	leal	-1(%r15), %eax
	movb	%al, 3(%r12)
	testq	%rcx, %rcx
	je	.LBB8_14
# %bb.7:
	orl	$256, %r15d             # imm = 0x100
	movl	$24, %ebx
	xorl	%ebp, %ebp
	jmp	.LBB8_9
	.p2align	4, 0x90
.LBB8_8:                                #   in Loop: Header=BB8_9 Depth=1
	addq	$1, %rbp
	addq	$32, %rbx
	cmpq	%rcx, %rbp
	jae	.LBB8_12
.LBB8_9:                                # =>This Inner Loop Header: Depth=1
	movq	8(%r12), %rax
	movzwl	-8(%rax,%rbx), %edx
	cmpw	%dx, %r15w
	jb	.LBB8_8
# %bb.10:                               #   in Loop: Header=BB8_9 Depth=1
	movzwl	-6(%rax,%rbx), %esi
	addl	%edx, %esi
	cmpl	%r15d, %esi
	jbe	.LBB8_8
# %bb.11:                               #   in Loop: Header=BB8_9 Depth=1
	movq	(%rax,%rbx), %rdi
	movzwl	%r15w, %ecx
	subl	%edx, %ecx
	movzwl	%cx, %esi
	movzbl	%r14b, %edx
	callq	*-16(%rax,%rbx)
	movq	16(%r12), %rcx
	jmp	.LBB8_8
.LBB8_12:
	movb	3(%r12), %al
	jmp	.LBB8_15
.LBB8_13:
	leal	-2(%r15), %eax
	movb	%al, 3(%r12)
.LBB8_14:
	xorl	%ecx, %ecx
.LBB8_15:
	movb	6(%r12), %dl
	andb	$-49, %dl
	leal	32(%rdx), %r14d
	movb	%r14b, 6(%r12)
	leal	-1(%rax), %esi
	movb	%sil, 3(%r12)
	testq	%rcx, %rcx
	je	.LBB8_32
# %bb.16:
	movzbl	%al, %r13d
	orl	$256, %r13d             # imm = 0x100
	movzwl	%r13w, %r15d
	movl	$24, %ebx
	xorl	%ebp, %ebp
	jmp	.LBB8_18
	.p2align	4, 0x90
.LBB8_17:                               #   in Loop: Header=BB8_18 Depth=1
	addq	$1, %rbp
	addq	$32, %rbx
	cmpq	%rcx, %rbp
	jae	.LBB8_21
.LBB8_18:                               # =>This Inner Loop Header: Depth=1
	movq	8(%r12), %rax
	movzwl	-8(%rax,%rbx), %edx
	cmpw	%dx, %r13w
	jb	.LBB8_17
# %bb.19:                               #   in Loop: Header=BB8_18 Depth=1
	movzwl	-6(%rax,%rbx), %esi
	addl	%edx, %esi
	cmpl	%r15d, %esi
	jbe	.LBB8_17
# %bb.20:                               #   in Loop: Header=BB8_18 Depth=1
	movq	(%rax,%rbx), %rdi
	movl	%r15d, %ecx
	subl	%edx, %ecx
	movzwl	%cx, %esi
	movzbl	%r14b, %edx
	callq	*-16(%rax,%rbx)
	movq	16(%r12), %rcx
	jmp	.LBB8_17
.LBB8_21:
	orb	$4, 6(%r12)
	testq	%rcx, %rcx
	je	.LBB8_33
# %bb.22:
	movl	$24, %ebp
	xorl	%eax, %eax
	xorl	%ebx, %ebx
	jmp	.LBB8_24
	.p2align	4, 0x90
.LBB8_23:                               #   in Loop: Header=BB8_24 Depth=1
	addq	$1, %rbx
	addq	$32, %rbp
	cmpq	%rcx, %rbx
	jae	.LBB8_27
.LBB8_24:                               # =>This Inner Loop Header: Depth=1
	movq	8(%r12), %rdx
	movzwl	-8(%rdx,%rbp), %esi
	cmpl	$65535, %esi            # imm = 0xFFFF
	je	.LBB8_23
# %bb.25:                               #   in Loop: Header=BB8_24 Depth=1
	movzwl	-6(%rdx,%rbp), %edi
	addl	%esi, %edi
	cmpl	$65535, %edi            # imm = 0xFFFF
	jb	.LBB8_23
# %bb.26:                               #   in Loop: Header=BB8_24 Depth=1
	movq	(%rdx,%rbp), %rdi
	movl	$-2, %eax
	subl	%esi, %eax
	movzwl	%ax, %esi
	callq	*-24(%rdx,%rbp)
                                        # kill: def $al killed $al def $rax
	movq	16(%r12), %rcx
	jmp	.LBB8_23
.LBB8_27:
	movzbl	%al, %edx
	movw	%dx, 4(%r12)
	testq	%rcx, %rcx
	je	.LBB8_35
# %bb.28:
	movl	$24, %ebp
	xorl	%eax, %eax
	xorl	%ebx, %ebx
	jmp	.LBB8_30
	.p2align	4, 0x90
.LBB8_29:                               #   in Loop: Header=BB8_30 Depth=1
	addq	$1, %rbx
	addq	$32, %rbp
	cmpq	%rcx, %rbx
	jae	.LBB8_34
.LBB8_30:                               # =>This Inner Loop Header: Depth=1
	movq	8(%r12), %rdx
	movzwl	-8(%rdx,%rbp), %esi
	movzwl	-6(%rdx,%rbp), %edi
	addl	%esi, %edi
	cmpl	$65536, %edi            # imm = 0x10000
	jb	.LBB8_29
# %bb.31:                               #   in Loop: Header=BB8_30 Depth=1
	movq	(%rdx,%rbp), %rdi
	notl	%esi
	movzwl	%si, %esi
	callq	*-24(%rdx,%rbp)
                                        # kill: def $al killed $al def $rax
	movq	16(%r12), %rcx
	jmp	.LBB8_29
.LBB8_32:
	orb	$36, %dl
	movb	%dl, 6(%r12)
.LBB8_33:
	movw	$0, 4(%r12)
	xorl	%edx, %edx
.LBB8_35:
	xorl	%eax, %eax
	jmp	.LBB8_36
.LBB8_34:
	movzwl	4(%r12), %edx
.LBB8_36:
	movzbl	%al, %eax
	shll	$8, %eax
	orl	%eax, %edx
	movw	%dx, 4(%r12)
	addq	$8, %rsp
	.cfi_def_cfa_offset 56
	popq	%rbx
	.cfi_def_cfa_offset 48
	popq	%r12
	.cfi_def_cfa_offset 40
	popq	%r13
	.cfi_def_cfa_offset 32
	popq	%r14
	.cfi_def_cfa_offset 24
	popq	%r15
	.cfi_def_cfa_offset 16
	popq	%rbp
	.cfi_def_cfa_offset 8
	retq
.Lfunc_end8:
	.size	triggerIRQ, .Lfunc_end8-triggerIRQ
	.cfi_endproc
                                        # -- End function
	.globl	BRK                     # -- Begin function BRK
	.p2align	4, 0x90
	.type	BRK,@function
BRK:                                    # @BRK
	.cfi_startproc
# %bb.0:
	pushq	%rbp
	.cfi_def_cfa_offset 16
	pushq	%r15
	.cfi_def_cfa_offset 24
	pushq	%r14
	.cfi_def_cfa_offset 32
	pushq	%r13
	.cfi_def_cfa_offset 40
	pushq	%r12
	.cfi_def_cfa_offset 48
	pushq	%rbx
	.cfi_def_cfa_offset 56
	pushq	%rax
	.cfi_def_cfa_offset 64
	.cfi_offset %rbx, -56
	.cfi_offset %r12, -48
	.cfi_offset %r13, -40
	.cfi_offset %r14, -32
	.cfi_offset %r15, -24
	.cfi_offset %rbp, -16
	movq	%rdi, %r12
	movl	4(%rdi), %r14d
	addl	$2, %r14d
	movw	%r14w, 4(%rdi)
	movzbl	3(%rdi), %r15d
	leal	-1(%r15), %eax
	movb	%al, 3(%rdi)
	movq	16(%rdi), %rcx
	testq	%rcx, %rcx
	je	.LBB9_13
# %bb.1:
	shrl	$8, %r14d
	orl	$256, %r15d             # imm = 0x100
	movl	$24, %ebx
	xorl	%ebp, %ebp
	jmp	.LBB9_3
	.p2align	4, 0x90
.LBB9_2:                                #   in Loop: Header=BB9_3 Depth=1
	addq	$1, %rbp
	addq	$32, %rbx
	cmpq	%rcx, %rbp
	jae	.LBB9_6
.LBB9_3:                                # =>This Inner Loop Header: Depth=1
	movq	8(%r12), %rax
	movzwl	-8(%rax,%rbx), %edx
	cmpw	%dx, %r15w
	jb	.LBB9_2
# %bb.4:                                #   in Loop: Header=BB9_3 Depth=1
	movzwl	-6(%rax,%rbx), %esi
	addl	%edx, %esi
	cmpl	%r15d, %esi
	jbe	.LBB9_2
# %bb.5:                                #   in Loop: Header=BB9_3 Depth=1
	movq	(%rax,%rbx), %rdi
	movzwl	%r15w, %ecx
	subl	%edx, %ecx
	movzwl	%cx, %esi
	movzbl	%r14b, %edx
	callq	*-16(%rax,%rbx)
	movq	16(%r12), %rcx
	jmp	.LBB9_2
.LBB9_6:
	movb	4(%r12), %r14b
	movzbl	3(%r12), %r15d
	leal	-1(%r15), %eax
	movb	%al, 3(%r12)
	testq	%rcx, %rcx
	je	.LBB9_14
# %bb.7:
	orl	$256, %r15d             # imm = 0x100
	movl	$24, %ebx
	xorl	%ebp, %ebp
	jmp	.LBB9_9
	.p2align	4, 0x90
.LBB9_8:                                #   in Loop: Header=BB9_9 Depth=1
	addq	$1, %rbp
	addq	$32, %rbx
	cmpq	%rcx, %rbp
	jae	.LBB9_12
.LBB9_9:                                # =>This Inner Loop Header: Depth=1
	movq	8(%r12), %rax
	movzwl	-8(%rax,%rbx), %edx
	cmpw	%dx, %r15w
	jb	.LBB9_8
# %bb.10:                               #   in Loop: Header=BB9_9 Depth=1
	movzwl	-6(%rax,%rbx), %esi
	addl	%edx, %esi
	cmpl	%r15d, %esi
	jbe	.LBB9_8
# %bb.11:                               #   in Loop: Header=BB9_9 Depth=1
	movq	(%rax,%rbx), %rdi
	movzwl	%r15w, %ecx
	subl	%edx, %ecx
	movzwl	%cx, %esi
	movzbl	%r14b, %edx
	callq	*-16(%rax,%rbx)
	movq	16(%r12), %rcx
	jmp	.LBB9_8
.LBB9_12:
	movb	3(%r12), %al
	jmp	.LBB9_15
.LBB9_13:
	leal	-2(%r15), %eax
	movb	%al, 3(%r12)
.LBB9_14:
	xorl	%ecx, %ecx
.LBB9_15:
	movb	6(%r12), %dl
	movl	%edx, %r14d
	orb	$48, %r14b
	movb	%r14b, 6(%r12)
	leal	-1(%rax), %esi
	movb	%sil, 3(%r12)
	testq	%rcx, %rcx
	je	.LBB9_32
# %bb.16:
	movzbl	%al, %r13d
	orl	$256, %r13d             # imm = 0x100
	movzwl	%r13w, %r15d
	movl	$24, %ebx
	xorl	%ebp, %ebp
	jmp	.LBB9_18
	.p2align	4, 0x90
.LBB9_17:                               #   in Loop: Header=BB9_18 Depth=1
	addq	$1, %rbp
	addq	$32, %rbx
	cmpq	%rcx, %rbp
	jae	.LBB9_21
.LBB9_18:                               # =>This Inner Loop Header: Depth=1
	movq	8(%r12), %rax
	movzwl	-8(%rax,%rbx), %edx
	cmpw	%dx, %r13w
	jb	.LBB9_17
# %bb.19:                               #   in Loop: Header=BB9_18 Depth=1
	movzwl	-6(%rax,%rbx), %esi
	addl	%edx, %esi
	cmpl	%r15d, %esi
	jbe	.LBB9_17
# %bb.20:                               #   in Loop: Header=BB9_18 Depth=1
	movq	(%rax,%rbx), %rdi
	movl	%r15d, %ecx
	subl	%edx, %ecx
	movzwl	%cx, %esi
	movzbl	%r14b, %edx
	callq	*-16(%rax,%rbx)
	movq	16(%r12), %rcx
	jmp	.LBB9_17
.LBB9_21:
	orb	$4, 6(%r12)
	testq	%rcx, %rcx
	je	.LBB9_33
# %bb.22:
	movl	$24, %ebp
	xorl	%eax, %eax
	xorl	%ebx, %ebx
	jmp	.LBB9_24
	.p2align	4, 0x90
.LBB9_23:                               #   in Loop: Header=BB9_24 Depth=1
	addq	$1, %rbx
	addq	$32, %rbp
	cmpq	%rcx, %rbx
	jae	.LBB9_27
.LBB9_24:                               # =>This Inner Loop Header: Depth=1
	movq	8(%r12), %rdx
	movzwl	-8(%rdx,%rbp), %esi
	cmpl	$65535, %esi            # imm = 0xFFFF
	je	.LBB9_23
# %bb.25:                               #   in Loop: Header=BB9_24 Depth=1
	movzwl	-6(%rdx,%rbp), %edi
	addl	%esi, %edi
	cmpl	$65535, %edi            # imm = 0xFFFF
	jb	.LBB9_23
# %bb.26:                               #   in Loop: Header=BB9_24 Depth=1
	movq	(%rdx,%rbp), %rdi
	movl	$-2, %eax
	subl	%esi, %eax
	movzwl	%ax, %esi
	callq	*-24(%rdx,%rbp)
                                        # kill: def $al killed $al def $rax
	movq	16(%r12), %rcx
	jmp	.LBB9_23
.LBB9_27:
	movzbl	%al, %edx
	movw	%dx, 4(%r12)
	testq	%rcx, %rcx
	je	.LBB9_35
# %bb.28:
	movl	$24, %ebp
	xorl	%eax, %eax
	xorl	%ebx, %ebx
	jmp	.LBB9_30
	.p2align	4, 0x90
.LBB9_29:                               #   in Loop: Header=BB9_30 Depth=1
	addq	$1, %rbx
	addq	$32, %rbp
	cmpq	%rcx, %rbx
	jae	.LBB9_34
.LBB9_30:                               # =>This Inner Loop Header: Depth=1
	movq	8(%r12), %rdx
	movzwl	-8(%rdx,%rbp), %esi
	movzwl	-6(%rdx,%rbp), %edi
	addl	%esi, %edi
	cmpl	$65536, %edi            # imm = 0x10000
	jb	.LBB9_29
# %bb.31:                               #   in Loop: Header=BB9_30 Depth=1
	movq	(%rdx,%rbp), %rdi
	notl	%esi
	movzwl	%si, %esi
	callq	*-24(%rdx,%rbp)
                                        # kill: def $al killed $al def $rax
	movq	16(%r12), %rcx
	jmp	.LBB9_29
.LBB9_32:
	orb	$52, %dl
	movb	%dl, 6(%r12)
.LBB9_33:
	movw	$0, 4(%r12)
	xorl	%edx, %edx
.LBB9_35:
	xorl	%eax, %eax
	jmp	.LBB9_36
.LBB9_34:
	movzwl	4(%r12), %edx
.LBB9_36:
	movzbl	%al, %eax
	shll	$8, %eax
	orl	%eax, %edx
	movw	%dx, 4(%r12)
	movl	$7, %eax
	addq	$8, %rsp
	.cfi_def_cfa_offset 56
	popq	%rbx
	.cfi_def_cfa_offset 48
	popq	%r12
	.cfi_def_cfa_offset 40
	popq	%r13
	.cfi_def_cfa_offset 32
	popq	%r14
	.cfi_def_cfa_offset 24
	popq	%r15
	.cfi_def_cfa_offset 16
	popq	%rbp
	.cfi_def_cfa_offset 8
	retq
.Lfunc_end9:
	.size	BRK, .Lfunc_end9-BRK
	.cfi_endproc
                                        # -- End function
	.globl	CLC                     # -- Begin function CLC
	.p2align	4, 0x90
	.type	CLC,@function
CLC:                                    # @CLC
	.cfi_startproc
# %bb.0:
	andb	$-2, 6(%rdi)
	movl	$2, %eax
	retq
.Lfunc_end10:
	.size	CLC, .Lfunc_end10-CLC
	.cfi_endproc
                                        # -- End function
	.globl	CLI                     # -- Begin function CLI
	.p2align	4, 0x90
	.type	CLI,@function
CLI:                                    # @CLI
	.cfi_startproc
# %bb.0:
	andb	$-5, 6(%rdi)
	movl	$2, %eax
	retq
.Lfunc_end11:
	.size	CLI, .Lfunc_end11-CLI
	.cfi_endproc
                                        # -- End function
	.globl	CLV                     # -- Begin function CLV
	.p2align	4, 0x90
	.type	CLV,@function
CLV:                                    # @CLV
	.cfi_startproc
# %bb.0:
	andb	$-65, 6(%rdi)
	movl	$2, %eax
	retq
.Lfunc_end12:
	.size	CLV, .Lfunc_end12-CLV
	.cfi_endproc
                                        # -- End function
	.globl	CLD                     # -- Begin function CLD
	.p2align	4, 0x90
	.type	CLD,@function
CLD:                                    # @CLD
	.cfi_startproc
# %bb.0:
	andb	$-9, 6(%rdi)
	movl	$2, %eax
	retq
.Lfunc_end13:
	.size	CLD, .Lfunc_end13-CLD
	.cfi_endproc
                                        # -- End function
	.globl	SEC                     # -- Begin function SEC
	.p2align	4, 0x90
	.type	SEC,@function
SEC:                                    # @SEC
	.cfi_startproc
# %bb.0:
	orb	$1, 6(%rdi)
	movl	$2, %eax
	retq
.Lfunc_end14:
	.size	SEC, .Lfunc_end14-SEC
	.cfi_endproc
                                        # -- End function
	.globl	SEI                     # -- Begin function SEI
	.p2align	4, 0x90
	.type	SEI,@function
SEI:                                    # @SEI
	.cfi_startproc
# %bb.0:
	orb	$4, 6(%rdi)
	movl	$2, %eax
	retq
.Lfunc_end15:
	.size	SEI, .Lfunc_end15-SEI
	.cfi_endproc
                                        # -- End function
	.globl	SED                     # -- Begin function SED
	.p2align	4, 0x90
	.type	SED,@function
SED:                                    # @SED
	.cfi_startproc
# %bb.0:
	orb	$8, 6(%rdi)
	movl	$2, %eax
	retq
.Lfunc_end16:
	.size	SED, .Lfunc_end16-SED
	.cfi_endproc
                                        # -- End function
	.globl	ORA_imm                 # -- Begin function ORA_imm
	.p2align	4, 0x90
	.type	ORA_imm,@function
ORA_imm:                                # @ORA_imm
	.cfi_startproc
# %bb.0:
	pushq	%rbp
	.cfi_def_cfa_offset 16
	pushq	%r15
	.cfi_def_cfa_offset 24
	pushq	%r14
	.cfi_def_cfa_offset 32
	pushq	%r12
	.cfi_def_cfa_offset 40
	pushq	%rbx
	.cfi_def_cfa_offset 48
	.cfi_offset %rbx, -48
	.cfi_offset %r12, -40
	.cfi_offset %r14, -32
	.cfi_offset %r15, -24
	.cfi_offset %rbp, -16
	movq	%rdi, %r15
	movb	(%rdi), %r14b
	movzwl	4(%rdi), %r12d
	leal	1(%r12), %eax
	movw	%ax, 4(%rdi)
	movq	16(%rdi), %rcx
	testq	%rcx, %rcx
	je	.LBB17_1
# %bb.2:
	movl	$24, %ebx
	xorl	%eax, %eax
	xorl	%ebp, %ebp
	jmp	.LBB17_3
	.p2align	4, 0x90
.LBB17_6:                               #   in Loop: Header=BB17_3 Depth=1
	addq	$1, %rbp
	addq	$32, %rbx
	cmpq	%rcx, %rbp
	jae	.LBB17_7
.LBB17_3:                               # =>This Inner Loop Header: Depth=1
	movq	8(%r15), %rdx
	movzwl	-8(%rdx,%rbx), %esi
	cmpw	%si, %r12w
	jb	.LBB17_6
# %bb.4:                                #   in Loop: Header=BB17_3 Depth=1
	movzwl	-6(%rdx,%rbx), %edi
	addl	%esi, %edi
	cmpl	%r12d, %edi
	jbe	.LBB17_6
# %bb.5:                                #   in Loop: Header=BB17_3 Depth=1
	movq	(%rdx,%rbx), %rdi
	movl	%r12d, %eax
	subl	%esi, %eax
	movzwl	%ax, %esi
	callq	*-24(%rdx,%rbx)
                                        # kill: def $al killed $al def $rax
	movq	16(%r15), %rcx
	jmp	.LBB17_6
.LBB17_1:
	xorl	%eax, %eax
.LBB17_7:
	orb	%r14b, %al
	movb	%al, (%r15)
	movb	6(%r15), %cl
	js	.LBB17_8
# %bb.10:
	andb	$127, %cl
	movb	%cl, 6(%r15)
	testb	%al, %al
	jne	.LBB17_9
# %bb.11:
	orb	$2, %cl
	jmp	.LBB17_12
.LBB17_8:
	orb	$-128, %cl
	movb	%cl, 6(%r15)
.LBB17_9:
	andb	$-3, %cl
.LBB17_12:
	movb	%cl, 6(%r15)
	movl	$2, %eax
	popq	%rbx
	.cfi_def_cfa_offset 40
	popq	%r12
	.cfi_def_cfa_offset 32
	popq	%r14
	.cfi_def_cfa_offset 24
	popq	%r15
	.cfi_def_cfa_offset 16
	popq	%rbp
	.cfi_def_cfa_offset 8
	retq
.Lfunc_end17:
	.size	ORA_imm, .Lfunc_end17-ORA_imm
	.cfi_endproc
                                        # -- End function
	.globl	ORA_zpg                 # -- Begin function ORA_zpg
	.p2align	4, 0x90
	.type	ORA_zpg,@function
ORA_zpg:                                # @ORA_zpg
	.cfi_startproc
# %bb.0:
	pushq	%rbp
	.cfi_def_cfa_offset 16
	pushq	%r15
	.cfi_def_cfa_offset 24
	pushq	%r14
	.cfi_def_cfa_offset 32
	pushq	%r12
	.cfi_def_cfa_offset 40
	pushq	%rbx
	.cfi_def_cfa_offset 48
	.cfi_offset %rbx, -48
	.cfi_offset %r12, -40
	.cfi_offset %r14, -32
	.cfi_offset %r15, -24
	.cfi_offset %rbp, -16
	movq	%rdi, %r15
	movb	(%rdi), %r14b
	movzwl	4(%rdi), %r12d
	movq	16(%rdi), %rcx
	testq	%rcx, %rcx
	je	.LBB18_1
# %bb.2:
	movl	$24, %ebx
	xorl	%eax, %eax
	xorl	%ebp, %ebp
	jmp	.LBB18_3
	.p2align	4, 0x90
.LBB18_6:                               #   in Loop: Header=BB18_3 Depth=1
	addq	$1, %rbp
	addq	$32, %rbx
	cmpq	%rcx, %rbp
	jae	.LBB18_7
.LBB18_3:                               # =>This Inner Loop Header: Depth=1
	movq	8(%r15), %rdx
	movzwl	-8(%rdx,%rbx), %esi
	cmpw	%si, %r12w
	jb	.LBB18_6
# %bb.4:                                #   in Loop: Header=BB18_3 Depth=1
	movzwl	-6(%rdx,%rbx), %edi
	addl	%esi, %edi
	cmpl	%r12d, %edi
	jbe	.LBB18_6
# %bb.5:                                #   in Loop: Header=BB18_3 Depth=1
	movq	(%rdx,%rbx), %rdi
	movl	%r12d, %eax
	subl	%esi, %eax
	movzwl	%ax, %esi
	callq	*-24(%rdx,%rbx)
                                        # kill: def $al killed $al def $rax
	movq	16(%r15), %rcx
	jmp	.LBB18_6
.LBB18_7:
	addw	$1, 4(%r15)
	testq	%rcx, %rcx
	je	.LBB18_8
# %bb.9:
	movzbl	%al, %r12d
	movl	$24, %ebx
	xorl	%eax, %eax
	xorl	%ebp, %ebp
	jmp	.LBB18_10
	.p2align	4, 0x90
.LBB18_13:                              #   in Loop: Header=BB18_10 Depth=1
	addq	$1, %rbp
	addq	$32, %rbx
	cmpq	%rcx, %rbp
	jae	.LBB18_14
.LBB18_10:                              # =>This Inner Loop Header: Depth=1
	movq	8(%r15), %rdx
	movzwl	-8(%rdx,%rbx), %esi
	cmpw	%r12w, %si
	ja	.LBB18_13
# %bb.11:                               #   in Loop: Header=BB18_10 Depth=1
	movzwl	-6(%rdx,%rbx), %edi
	addl	%esi, %edi
	cmpl	%r12d, %edi
	jbe	.LBB18_13
# %bb.12:                               #   in Loop: Header=BB18_10 Depth=1
	movq	(%rdx,%rbx), %rdi
	movzwl	%r12w, %eax
	subl	%esi, %eax
	movzwl	%ax, %esi
	callq	*-24(%rdx,%rbx)
                                        # kill: def $al killed $al def $rax
	movq	16(%r15), %rcx
	jmp	.LBB18_13
.LBB18_1:
	addl	$1, %r12d
	movw	%r12w, 4(%r15)
	xorl	%eax, %eax
.LBB18_14:
	orb	%r14b, %al
	movb	%al, (%r15)
	movb	6(%r15), %cl
	js	.LBB18_15
.LBB18_17:
	andb	$127, %cl
	movb	%cl, 6(%r15)
	testb	%al, %al
	jne	.LBB18_16
# %bb.18:
	orb	$2, %cl
	jmp	.LBB18_19
.LBB18_8:
	xorl	%eax, %eax
	orb	%r14b, %al
	movb	%al, (%r15)
	movb	6(%r15), %cl
	jns	.LBB18_17
.LBB18_15:
	orb	$-128, %cl
	movb	%cl, 6(%r15)
.LBB18_16:
	andb	$-3, %cl
.LBB18_19:
	movb	%cl, 6(%r15)
	movl	$3, %eax
	popq	%rbx
	.cfi_def_cfa_offset 40
	popq	%r12
	.cfi_def_cfa_offset 32
	popq	%r14
	.cfi_def_cfa_offset 24
	popq	%r15
	.cfi_def_cfa_offset 16
	popq	%rbp
	.cfi_def_cfa_offset 8
	retq
.Lfunc_end18:
	.size	ORA_zpg, .Lfunc_end18-ORA_zpg
	.cfi_endproc
                                        # -- End function
	.globl	ORA_zpgx                # -- Begin function ORA_zpgx
	.p2align	4, 0x90
	.type	ORA_zpgx,@function
ORA_zpgx:                               # @ORA_zpgx
	.cfi_startproc
# %bb.0:
	pushq	%rbp
	.cfi_def_cfa_offset 16
	pushq	%r15
	.cfi_def_cfa_offset 24
	pushq	%r14
	.cfi_def_cfa_offset 32
	pushq	%r13
	.cfi_def_cfa_offset 40
	pushq	%r12
	.cfi_def_cfa_offset 48
	pushq	%rbx
	.cfi_def_cfa_offset 56
	pushq	%rax
	.cfi_def_cfa_offset 64
	.cfi_offset %rbx, -56
	.cfi_offset %r12, -48
	.cfi_offset %r13, -40
	.cfi_offset %r14, -32
	.cfi_offset %r15, -24
	.cfi_offset %rbp, -16
	movq	%rdi, %r13
	movb	(%rdi), %r14b
	movzwl	4(%rdi), %r12d
	movq	16(%rdi), %rcx
	testq	%rcx, %rcx
	je	.LBB19_1
# %bb.2:
	movzwl	%r12w, %r15d
	movl	$24, %ebp
	xorl	%eax, %eax
	xorl	%ebx, %ebx
	jmp	.LBB19_3
	.p2align	4, 0x90
.LBB19_6:                               #   in Loop: Header=BB19_3 Depth=1
	addq	$1, %rbx
	addq	$32, %rbp
	cmpq	%rcx, %rbx
	jae	.LBB19_7
.LBB19_3:                               # =>This Inner Loop Header: Depth=1
	movq	8(%r13), %rdx
	movzwl	-8(%rdx,%rbp), %esi
	cmpw	%si, %r12w
	jb	.LBB19_6
# %bb.4:                                #   in Loop: Header=BB19_3 Depth=1
	movzwl	-6(%rdx,%rbp), %edi
	addl	%esi, %edi
	cmpl	%r15d, %edi
	jbe	.LBB19_6
# %bb.5:                                #   in Loop: Header=BB19_3 Depth=1
	movq	(%rdx,%rbp), %rdi
	movl	%r12d, %eax
	subl	%esi, %eax
	movzwl	%ax, %esi
	callq	*-24(%rdx,%rbp)
                                        # kill: def $al killed $al def $rax
	movq	16(%r13), %rcx
	jmp	.LBB19_6
.LBB19_7:
	movzwl	4(%r13), %r12d
	jmp	.LBB19_8
.LBB19_1:
	xorl	%ecx, %ecx
	xorl	%eax, %eax
.LBB19_8:
	addb	1(%r13), %al
	addl	$1, %r12d
	movw	%r12w, 4(%r13)
	testq	%rcx, %rcx
	je	.LBB19_9
# %bb.10:
	movzbl	%al, %r12d
	movzwl	%r12w, %r15d
	movl	$24, %ebp
	xorl	%eax, %eax
	xorl	%ebx, %ebx
	jmp	.LBB19_11
	.p2align	4, 0x90
.LBB19_14:                              #   in Loop: Header=BB19_11 Depth=1
	addq	$1, %rbx
	addq	$32, %rbp
	cmpq	%rcx, %rbx
	jae	.LBB19_15
.LBB19_11:                              # =>This Inner Loop Header: Depth=1
	movq	8(%r13), %rdx
	movzwl	-8(%rdx,%rbp), %esi
	cmpw	%r12w, %si
	ja	.LBB19_14
# %bb.12:                               #   in Loop: Header=BB19_11 Depth=1
	movzwl	-6(%rdx,%rbp), %edi
	addl	%esi, %edi
	cmpl	%r15d, %edi
	jbe	.LBB19_14
# %bb.13:                               #   in Loop: Header=BB19_11 Depth=1
	movq	(%rdx,%rbp), %rdi
	movl	%r15d, %eax
	subl	%esi, %eax
	movzwl	%ax, %esi
	callq	*-24(%rdx,%rbp)
                                        # kill: def $al killed $al def $rax
	movq	16(%r13), %rcx
	jmp	.LBB19_14
.LBB19_9:
	xorl	%eax, %eax
.LBB19_15:
	orb	%r14b, %al
	movb	%al, (%r13)
	movb	6(%r13), %cl
	js	.LBB19_16
# %bb.18:
	andb	$127, %cl
	movb	%cl, 6(%r13)
	testb	%al, %al
	jne	.LBB19_17
# %bb.19:
	orb	$2, %cl
	jmp	.LBB19_20
.LBB19_16:
	orb	$-128, %cl
	movb	%cl, 6(%r13)
.LBB19_17:
	andb	$-3, %cl
.LBB19_20:
	movb	%cl, 6(%r13)
	movl	$4, %eax
	addq	$8, %rsp
	.cfi_def_cfa_offset 56
	popq	%rbx
	.cfi_def_cfa_offset 48
	popq	%r12
	.cfi_def_cfa_offset 40
	popq	%r13
	.cfi_def_cfa_offset 32
	popq	%r14
	.cfi_def_cfa_offset 24
	popq	%r15
	.cfi_def_cfa_offset 16
	popq	%rbp
	.cfi_def_cfa_offset 8
	retq
.Lfunc_end19:
	.size	ORA_zpgx, .Lfunc_end19-ORA_zpgx
	.cfi_endproc
                                        # -- End function
	.globl	ORA_abss                # -- Begin function ORA_abss
	.p2align	4, 0x90
	.type	ORA_abss,@function
ORA_abss:                               # @ORA_abss
	.cfi_startproc
# %bb.0:
	pushq	%rbp
	.cfi_def_cfa_offset 16
	pushq	%r15
	.cfi_def_cfa_offset 24
	pushq	%r14
	.cfi_def_cfa_offset 32
	pushq	%r13
	.cfi_def_cfa_offset 40
	pushq	%r12
	.cfi_def_cfa_offset 48
	pushq	%rbx
	.cfi_def_cfa_offset 56
	pushq	%rax
	.cfi_def_cfa_offset 64
	.cfi_offset %rbx, -56
	.cfi_offset %r12, -48
	.cfi_offset %r13, -40
	.cfi_offset %r14, -32
	.cfi_offset %r15, -24
	.cfi_offset %rbp, -16
	movq	%rdi, %r13
	movb	(%rdi), %r12b
	movzwl	4(%rdi), %r14d
	movq	16(%rdi), %rcx
	testq	%rcx, %rcx
	movb	%r12b, 7(%rsp)          # 1-byte Spill
	je	.LBB20_12
# %bb.1:
	movzwl	%r14w, %r15d
	movl	$24, %ebx
	xorl	%eax, %eax
	xorl	%ebp, %ebp
	jmp	.LBB20_3
	.p2align	4, 0x90
.LBB20_2:                               #   in Loop: Header=BB20_3 Depth=1
	addq	$1, %rbp
	addq	$32, %rbx
	cmpq	%rcx, %rbp
	jae	.LBB20_6
.LBB20_3:                               # =>This Inner Loop Header: Depth=1
	movq	8(%r13), %rdx
	movzwl	-8(%rdx,%rbx), %esi
	cmpw	%si, %r14w
	jb	.LBB20_2
# %bb.4:                                #   in Loop: Header=BB20_3 Depth=1
	movzwl	-6(%rdx,%rbx), %edi
	addl	%esi, %edi
	cmpl	%r15d, %edi
	jbe	.LBB20_2
# %bb.5:                                #   in Loop: Header=BB20_3 Depth=1
	movq	(%rdx,%rbx), %rdi
	movl	%r14d, %eax
	subl	%esi, %eax
	movzwl	%ax, %esi
	callq	*-24(%rdx,%rbx)
                                        # kill: def $al killed $al def $rax
	movq	16(%r13), %rcx
	jmp	.LBB20_2
.LBB20_6:
	movl	4(%r13), %r14d
	testq	%rcx, %rcx
	je	.LBB20_12
# %bb.7:
	movzbl	%al, %r15d
	addl	$1, %r14d
	movzwl	%r14w, %r12d
	movl	$24, %ebx
	xorl	%eax, %eax
	xorl	%ebp, %ebp
	jmp	.LBB20_9
	.p2align	4, 0x90
.LBB20_8:                               #   in Loop: Header=BB20_9 Depth=1
	addq	$1, %rbp
	addq	$32, %rbx
	cmpq	%rcx, %rbp
	jae	.LBB20_13
.LBB20_9:                               # =>This Inner Loop Header: Depth=1
	movq	8(%r13), %rdx
	movzwl	-8(%rdx,%rbx), %esi
	cmpw	%si, %r14w
	jb	.LBB20_8
# %bb.10:                               #   in Loop: Header=BB20_9 Depth=1
	movzwl	-6(%rdx,%rbx), %edi
	addl	%esi, %edi
	cmpl	%r12d, %edi
	jbe	.LBB20_8
# %bb.11:                               #   in Loop: Header=BB20_9 Depth=1
	movq	(%rdx,%rbx), %rdi
	movl	%r14d, %eax
	subl	%esi, %eax
	movzwl	%ax, %esi
	callq	*-24(%rdx,%rbx)
                                        # kill: def $al killed $al def $rax
	movq	16(%r13), %rcx
	jmp	.LBB20_8
.LBB20_12:
	addl	$2, %r14d
	movw	%r14w, 4(%r13)
.LBB20_19:
	xorl	%eax, %eax
.LBB20_20:
	orb	7(%rsp), %al            # 1-byte Folded Reload
	movb	%al, (%r13)
	movb	6(%r13), %cl
	js	.LBB20_23
# %bb.21:
	andb	$127, %cl
	movb	%cl, 6(%r13)
	testb	%al, %al
	jne	.LBB20_24
# %bb.22:
	orb	$2, %cl
	jmp	.LBB20_25
.LBB20_13:
	addw	$2, 4(%r13)
	testq	%rcx, %rcx
	je	.LBB20_19
# %bb.14:
	movzbl	%al, %eax
	shll	$8, %eax
	movzwl	%r15w, %r12d
	orl	%eax, %r12d
	movzwl	%r12w, %r15d
	movl	$24, %ebp
	xorl	%eax, %eax
	xorl	%ebx, %ebx
	jmp	.LBB20_16
	.p2align	4, 0x90
.LBB20_15:                              #   in Loop: Header=BB20_16 Depth=1
	addq	$1, %rbx
	addq	$32, %rbp
	cmpq	%rcx, %rbx
	jae	.LBB20_20
.LBB20_16:                              # =>This Inner Loop Header: Depth=1
	movq	8(%r13), %rdx
	movzwl	-8(%rdx,%rbp), %esi
	cmpw	%si, %r12w
	jb	.LBB20_15
# %bb.17:                               #   in Loop: Header=BB20_16 Depth=1
	movzwl	-6(%rdx,%rbp), %edi
	addl	%esi, %edi
	cmpl	%r15d, %edi
	jbe	.LBB20_15
# %bb.18:                               #   in Loop: Header=BB20_16 Depth=1
	movq	(%rdx,%rbp), %rdi
	movl	%r12d, %eax
	subl	%esi, %eax
	movzwl	%ax, %esi
	callq	*-24(%rdx,%rbp)
                                        # kill: def $al killed $al def $rax
	movq	16(%r13), %rcx
	jmp	.LBB20_15
.LBB20_23:
	orb	$-128, %cl
	movb	%cl, 6(%r13)
.LBB20_24:
	andb	$-3, %cl
.LBB20_25:
	movb	%cl, 6(%r13)
	movl	$4, %eax
	addq	$8, %rsp
	.cfi_def_cfa_offset 56
	popq	%rbx
	.cfi_def_cfa_offset 48
	popq	%r12
	.cfi_def_cfa_offset 40
	popq	%r13
	.cfi_def_cfa_offset 32
	popq	%r14
	.cfi_def_cfa_offset 24
	popq	%r15
	.cfi_def_cfa_offset 16
	popq	%rbp
	.cfi_def_cfa_offset 8
	retq
.Lfunc_end20:
	.size	ORA_abss, .Lfunc_end20-ORA_abss
	.cfi_endproc
                                        # -- End function
	.globl	ORA_absx                # -- Begin function ORA_absx
	.p2align	4, 0x90
	.type	ORA_absx,@function
ORA_absx:                               # @ORA_absx
	.cfi_startproc
# %bb.0:
	pushq	%rbp
	.cfi_def_cfa_offset 16
	pushq	%r15
	.cfi_def_cfa_offset 24
	pushq	%r14
	.cfi_def_cfa_offset 32
	pushq	%r13
	.cfi_def_cfa_offset 40
	pushq	%r12
	.cfi_def_cfa_offset 48
	pushq	%rbx
	.cfi_def_cfa_offset 56
	pushq	%rax
	.cfi_def_cfa_offset 64
	.cfi_offset %rbx, -56
	.cfi_offset %r12, -48
	.cfi_offset %r13, -40
	.cfi_offset %r14, -32
	.cfi_offset %r15, -24
	.cfi_offset %rbp, -16
	movq	%rdi, %r13
	movb	(%rdi), %al
	movzwl	4(%rdi), %r14d
	movq	16(%rdi), %rcx
	testq	%rcx, %rcx
	movb	%al, 7(%rsp)            # 1-byte Spill
	je	.LBB21_13
# %bb.1:
	movzwl	%r14w, %r15d
	movl	$24, %ebx
	xorl	%eax, %eax
	xorl	%ebp, %ebp
	jmp	.LBB21_3
	.p2align	4, 0x90
.LBB21_2:                               #   in Loop: Header=BB21_3 Depth=1
	addq	$1, %rbp
	addq	$32, %rbx
	cmpq	%rcx, %rbp
	jae	.LBB21_6
.LBB21_3:                               # =>This Inner Loop Header: Depth=1
	movq	8(%r13), %rdx
	movzwl	-8(%rdx,%rbx), %esi
	cmpw	%si, %r14w
	jb	.LBB21_2
# %bb.4:                                #   in Loop: Header=BB21_3 Depth=1
	movzwl	-6(%rdx,%rbx), %edi
	addl	%esi, %edi
	cmpl	%r15d, %edi
	jbe	.LBB21_2
# %bb.5:                                #   in Loop: Header=BB21_3 Depth=1
	movq	(%rdx,%rbx), %rdi
	movl	%r14d, %eax
	subl	%esi, %eax
	movzwl	%ax, %esi
	callq	*-24(%rdx,%rbx)
                                        # kill: def $al killed $al def $rax
	movq	16(%r13), %rcx
	jmp	.LBB21_2
.LBB21_6:
	movzbl	%al, %r15d
	movl	4(%r13), %r14d
	testq	%rcx, %rcx
	je	.LBB21_14
# %bb.7:
	addl	$1, %r14d
	movzwl	%r14w, %r12d
	movl	$24, %ebx
	xorl	%eax, %eax
	xorl	%ebp, %ebp
	jmp	.LBB21_9
	.p2align	4, 0x90
.LBB21_8:                               #   in Loop: Header=BB21_9 Depth=1
	addq	$1, %rbp
	addq	$32, %rbx
	cmpq	%rcx, %rbp
	jae	.LBB21_12
.LBB21_9:                               # =>This Inner Loop Header: Depth=1
	movq	8(%r13), %rdx
	movzwl	-8(%rdx,%rbx), %esi
	cmpw	%si, %r14w
	jb	.LBB21_8
# %bb.10:                               #   in Loop: Header=BB21_9 Depth=1
	movzwl	-6(%rdx,%rbx), %edi
	addl	%esi, %edi
	cmpl	%r12d, %edi
	jbe	.LBB21_8
# %bb.11:                               #   in Loop: Header=BB21_9 Depth=1
	movq	(%rdx,%rbx), %rdi
	movl	%r14d, %eax
	subl	%esi, %eax
	movzwl	%ax, %esi
	callq	*-24(%rdx,%rbx)
                                        # kill: def $al killed $al def $rax
	movq	16(%r13), %rcx
	jmp	.LBB21_8
.LBB21_12:
	movzwl	4(%r13), %r14d
	jmp	.LBB21_16
.LBB21_13:
	xorl	%ecx, %ecx
	xorl	%r15d, %r15d
	jmp	.LBB21_15
.LBB21_14:
	xorl	%ecx, %ecx
.LBB21_15:
	xorl	%eax, %eax
.LBB21_16:
	movzbl	1(%r13), %edx
	addl	$2, %r14d
	movw	%r14w, 4(%r13)
	testq	%rcx, %rcx
	je	.LBB21_22
# %bb.17:
	movzbl	%al, %eax
	shll	$8, %eax
	movzwl	%r15w, %r12d
	orl	%eax, %r12d
	addl	%edx, %r12d
	movzwl	%r12w, %r15d
	movl	$24, %ebx
	xorl	%eax, %eax
	xorl	%ebp, %ebp
	jmp	.LBB21_19
	.p2align	4, 0x90
.LBB21_18:                              #   in Loop: Header=BB21_19 Depth=1
	addq	$1, %rbp
	addq	$32, %rbx
	cmpq	%rcx, %rbp
	jae	.LBB21_23
.LBB21_19:                              # =>This Inner Loop Header: Depth=1
	movq	8(%r13), %rdx
	movzwl	-8(%rdx,%rbx), %esi
	cmpw	%si, %r12w
	jb	.LBB21_18
# %bb.20:                               #   in Loop: Header=BB21_19 Depth=1
	movzwl	-6(%rdx,%rbx), %edi
	addl	%esi, %edi
	cmpl	%r15d, %edi
	jbe	.LBB21_18
# %bb.21:                               #   in Loop: Header=BB21_19 Depth=1
	movq	(%rdx,%rbx), %rdi
	movl	%r12d, %eax
	subl	%esi, %eax
	movzwl	%ax, %esi
	callq	*-24(%rdx,%rbx)
                                        # kill: def $al killed $al def $rax
	movq	16(%r13), %rcx
	jmp	.LBB21_18
.LBB21_22:
	xorl	%eax, %eax
.LBB21_23:
	orb	7(%rsp), %al            # 1-byte Folded Reload
	movb	%al, (%r13)
	movb	6(%r13), %cl
	js	.LBB21_26
# %bb.24:
	andb	$127, %cl
	movb	%cl, 6(%r13)
	testb	%al, %al
	jne	.LBB21_27
# %bb.25:
	orb	$2, %cl
	jmp	.LBB21_28
.LBB21_26:
	orb	$-128, %cl
	movb	%cl, 6(%r13)
.LBB21_27:
	andb	$-3, %cl
.LBB21_28:
	movb	%cl, 6(%r13)
	movl	$4, %eax
	addq	$8, %rsp
	.cfi_def_cfa_offset 56
	popq	%rbx
	.cfi_def_cfa_offset 48
	popq	%r12
	.cfi_def_cfa_offset 40
	popq	%r13
	.cfi_def_cfa_offset 32
	popq	%r14
	.cfi_def_cfa_offset 24
	popq	%r15
	.cfi_def_cfa_offset 16
	popq	%rbp
	.cfi_def_cfa_offset 8
	retq
.Lfunc_end21:
	.size	ORA_absx, .Lfunc_end21-ORA_absx
	.cfi_endproc
                                        # -- End function
	.globl	ORA_absy                # -- Begin function ORA_absy
	.p2align	4, 0x90
	.type	ORA_absy,@function
ORA_absy:                               # @ORA_absy
	.cfi_startproc
# %bb.0:
	pushq	%rbp
	.cfi_def_cfa_offset 16
	pushq	%r15
	.cfi_def_cfa_offset 24
	pushq	%r14
	.cfi_def_cfa_offset 32
	pushq	%r13
	.cfi_def_cfa_offset 40
	pushq	%r12
	.cfi_def_cfa_offset 48
	pushq	%rbx
	.cfi_def_cfa_offset 56
	pushq	%rax
	.cfi_def_cfa_offset 64
	.cfi_offset %rbx, -56
	.cfi_offset %r12, -48
	.cfi_offset %r13, -40
	.cfi_offset %r14, -32
	.cfi_offset %r15, -24
	.cfi_offset %rbp, -16
	movq	%rdi, %r13
	movb	(%rdi), %al
	movzwl	4(%rdi), %r14d
	movq	16(%rdi), %rcx
	testq	%rcx, %rcx
	movb	%al, 7(%rsp)            # 1-byte Spill
	je	.LBB22_13
# %bb.1:
	movzwl	%r14w, %r15d
	movl	$24, %ebx
	xorl	%eax, %eax
	xorl	%ebp, %ebp
	jmp	.LBB22_3
	.p2align	4, 0x90
.LBB22_2:                               #   in Loop: Header=BB22_3 Depth=1
	addq	$1, %rbp
	addq	$32, %rbx
	cmpq	%rcx, %rbp
	jae	.LBB22_6
.LBB22_3:                               # =>This Inner Loop Header: Depth=1
	movq	8(%r13), %rdx
	movzwl	-8(%rdx,%rbx), %esi
	cmpw	%si, %r14w
	jb	.LBB22_2
# %bb.4:                                #   in Loop: Header=BB22_3 Depth=1
	movzwl	-6(%rdx,%rbx), %edi
	addl	%esi, %edi
	cmpl	%r15d, %edi
	jbe	.LBB22_2
# %bb.5:                                #   in Loop: Header=BB22_3 Depth=1
	movq	(%rdx,%rbx), %rdi
	movl	%r14d, %eax
	subl	%esi, %eax
	movzwl	%ax, %esi
	callq	*-24(%rdx,%rbx)
                                        # kill: def $al killed $al def $rax
	movq	16(%r13), %rcx
	jmp	.LBB22_2
.LBB22_6:
	movzbl	%al, %r15d
	movl	4(%r13), %r14d
	testq	%rcx, %rcx
	je	.LBB22_14
# %bb.7:
	addl	$1, %r14d
	movzwl	%r14w, %r12d
	movl	$24, %ebx
	xorl	%eax, %eax
	xorl	%ebp, %ebp
	jmp	.LBB22_9
	.p2align	4, 0x90
.LBB22_8:                               #   in Loop: Header=BB22_9 Depth=1
	addq	$1, %rbp
	addq	$32, %rbx
	cmpq	%rcx, %rbp
	jae	.LBB22_12
.LBB22_9:                               # =>This Inner Loop Header: Depth=1
	movq	8(%r13), %rdx
	movzwl	-8(%rdx,%rbx), %esi
	cmpw	%si, %r14w
	jb	.LBB22_8
# %bb.10:                               #   in Loop: Header=BB22_9 Depth=1
	movzwl	-6(%rdx,%rbx), %edi
	addl	%esi, %edi
	cmpl	%r12d, %edi
	jbe	.LBB22_8
# %bb.11:                               #   in Loop: Header=BB22_9 Depth=1
	movq	(%rdx,%rbx), %rdi
	movl	%r14d, %eax
	subl	%esi, %eax
	movzwl	%ax, %esi
	callq	*-24(%rdx,%rbx)
                                        # kill: def $al killed $al def $rax
	movq	16(%r13), %rcx
	jmp	.LBB22_8
.LBB22_12:
	movzwl	4(%r13), %r14d
	jmp	.LBB22_16
.LBB22_13:
	xorl	%ecx, %ecx
	xorl	%r15d, %r15d
	jmp	.LBB22_15
.LBB22_14:
	xorl	%ecx, %ecx
.LBB22_15:
	xorl	%eax, %eax
.LBB22_16:
	movzbl	2(%r13), %edx
	addl	$2, %r14d
	movw	%r14w, 4(%r13)
	testq	%rcx, %rcx
	je	.LBB22_22
# %bb.17:
	movzbl	%al, %eax
	shll	$8, %eax
	movzwl	%r15w, %r12d
	orl	%eax, %r12d
	addl	%edx, %r12d
	movzwl	%r12w, %r15d
	movl	$24, %ebx
	xorl	%eax, %eax
	xorl	%ebp, %ebp
	jmp	.LBB22_19
	.p2align	4, 0x90
.LBB22_18:                              #   in Loop: Header=BB22_19 Depth=1
	addq	$1, %rbp
	addq	$32, %rbx
	cmpq	%rcx, %rbp
	jae	.LBB22_23
.LBB22_19:                              # =>This Inner Loop Header: Depth=1
	movq	8(%r13), %rdx
	movzwl	-8(%rdx,%rbx), %esi
	cmpw	%si, %r12w
	jb	.LBB22_18
# %bb.20:                               #   in Loop: Header=BB22_19 Depth=1
	movzwl	-6(%rdx,%rbx), %edi
	addl	%esi, %edi
	cmpl	%r15d, %edi
	jbe	.LBB22_18
# %bb.21:                               #   in Loop: Header=BB22_19 Depth=1
	movq	(%rdx,%rbx), %rdi
	movl	%r12d, %eax
	subl	%esi, %eax
	movzwl	%ax, %esi
	callq	*-24(%rdx,%rbx)
                                        # kill: def $al killed $al def $rax
	movq	16(%r13), %rcx
	jmp	.LBB22_18
.LBB22_22:
	xorl	%eax, %eax
.LBB22_23:
	orb	7(%rsp), %al            # 1-byte Folded Reload
	movb	%al, (%r13)
	movb	6(%r13), %cl
	js	.LBB22_26
# %bb.24:
	andb	$127, %cl
	movb	%cl, 6(%r13)
	testb	%al, %al
	jne	.LBB22_27
# %bb.25:
	orb	$2, %cl
	jmp	.LBB22_28
.LBB22_26:
	orb	$-128, %cl
	movb	%cl, 6(%r13)
.LBB22_27:
	andb	$-3, %cl
.LBB22_28:
	movb	%cl, 6(%r13)
	movl	$4, %eax
	addq	$8, %rsp
	.cfi_def_cfa_offset 56
	popq	%rbx
	.cfi_def_cfa_offset 48
	popq	%r12
	.cfi_def_cfa_offset 40
	popq	%r13
	.cfi_def_cfa_offset 32
	popq	%r14
	.cfi_def_cfa_offset 24
	popq	%r15
	.cfi_def_cfa_offset 16
	popq	%rbp
	.cfi_def_cfa_offset 8
	retq
.Lfunc_end22:
	.size	ORA_absy, .Lfunc_end22-ORA_absy
	.cfi_endproc
                                        # -- End function
	.globl	ORA_xind                # -- Begin function ORA_xind
	.p2align	4, 0x90
	.type	ORA_xind,@function
ORA_xind:                               # @ORA_xind
	.cfi_startproc
# %bb.0:
	pushq	%rbp
	.cfi_def_cfa_offset 16
	pushq	%r15
	.cfi_def_cfa_offset 24
	pushq	%r14
	.cfi_def_cfa_offset 32
	pushq	%r13
	.cfi_def_cfa_offset 40
	pushq	%r12
	.cfi_def_cfa_offset 48
	pushq	%rbx
	.cfi_def_cfa_offset 56
	pushq	%rax
	.cfi_def_cfa_offset 64
	.cfi_offset %rbx, -56
	.cfi_offset %r12, -48
	.cfi_offset %r13, -40
	.cfi_offset %r14, -32
	.cfi_offset %r15, -24
	.cfi_offset %rbp, -16
	movq	%rdi, %r13
	movb	(%rdi), %r14b
	callq	xind
	movq	16(%r13), %rcx
	testq	%rcx, %rcx
	je	.LBB23_1
# %bb.2:
	movl	%eax, %r12d
	movzwl	%ax, %r15d
	movl	$24, %ebp
	xorl	%eax, %eax
	xorl	%ebx, %ebx
	jmp	.LBB23_3
	.p2align	4, 0x90
.LBB23_6:                               #   in Loop: Header=BB23_3 Depth=1
	addq	$1, %rbx
	addq	$32, %rbp
	cmpq	%rcx, %rbx
	jae	.LBB23_7
.LBB23_3:                               # =>This Inner Loop Header: Depth=1
	movq	8(%r13), %rdx
	movzwl	-8(%rdx,%rbp), %esi
	cmpw	%si, %r12w
	jb	.LBB23_6
# %bb.4:                                #   in Loop: Header=BB23_3 Depth=1
	movzwl	-6(%rdx,%rbp), %edi
	addl	%esi, %edi
	cmpl	%r15d, %edi
	jbe	.LBB23_6
# %bb.5:                                #   in Loop: Header=BB23_3 Depth=1
	movq	(%rdx,%rbp), %rdi
	movl	%r15d, %eax
	subl	%esi, %eax
	movzwl	%ax, %esi
	callq	*-24(%rdx,%rbp)
                                        # kill: def $al killed $al def $rax
	movq	16(%r13), %rcx
	jmp	.LBB23_6
.LBB23_1:
	xorl	%eax, %eax
.LBB23_7:
	orb	%r14b, %al
	movb	%al, (%r13)
	movb	6(%r13), %cl
	js	.LBB23_8
# %bb.10:
	andb	$127, %cl
	movb	%cl, 6(%r13)
	testb	%al, %al
	jne	.LBB23_9
# %bb.11:
	orb	$2, %cl
	jmp	.LBB23_12
.LBB23_8:
	orb	$-128, %cl
	movb	%cl, 6(%r13)
.LBB23_9:
	andb	$-3, %cl
.LBB23_12:
	movb	%cl, 6(%r13)
	movl	$6, %eax
	addq	$8, %rsp
	.cfi_def_cfa_offset 56
	popq	%rbx
	.cfi_def_cfa_offset 48
	popq	%r12
	.cfi_def_cfa_offset 40
	popq	%r13
	.cfi_def_cfa_offset 32
	popq	%r14
	.cfi_def_cfa_offset 24
	popq	%r15
	.cfi_def_cfa_offset 16
	popq	%rbp
	.cfi_def_cfa_offset 8
	retq
.Lfunc_end23:
	.size	ORA_xind, .Lfunc_end23-ORA_xind
	.cfi_endproc
                                        # -- End function
	.globl	ORA_indy                # -- Begin function ORA_indy
	.p2align	4, 0x90
	.type	ORA_indy,@function
ORA_indy:                               # @ORA_indy
	.cfi_startproc
# %bb.0:
	pushq	%rbp
	.cfi_def_cfa_offset 16
	pushq	%r15
	.cfi_def_cfa_offset 24
	pushq	%r14
	.cfi_def_cfa_offset 32
	pushq	%r13
	.cfi_def_cfa_offset 40
	pushq	%r12
	.cfi_def_cfa_offset 48
	pushq	%rbx
	.cfi_def_cfa_offset 56
	pushq	%rax
	.cfi_def_cfa_offset 64
	.cfi_offset %rbx, -56
	.cfi_offset %r12, -48
	.cfi_offset %r13, -40
	.cfi_offset %r14, -32
	.cfi_offset %r15, -24
	.cfi_offset %rbp, -16
	movq	%rdi, %r13
	movb	(%rdi), %r14b
	callq	indy
	movq	16(%r13), %rcx
	testq	%rcx, %rcx
	je	.LBB24_1
# %bb.2:
	movl	%eax, %r12d
	movzwl	%ax, %r15d
	movl	$24, %ebp
	xorl	%eax, %eax
	xorl	%ebx, %ebx
	jmp	.LBB24_3
	.p2align	4, 0x90
.LBB24_6:                               #   in Loop: Header=BB24_3 Depth=1
	addq	$1, %rbx
	addq	$32, %rbp
	cmpq	%rcx, %rbx
	jae	.LBB24_7
.LBB24_3:                               # =>This Inner Loop Header: Depth=1
	movq	8(%r13), %rdx
	movzwl	-8(%rdx,%rbp), %esi
	cmpw	%si, %r12w
	jb	.LBB24_6
# %bb.4:                                #   in Loop: Header=BB24_3 Depth=1
	movzwl	-6(%rdx,%rbp), %edi
	addl	%esi, %edi
	cmpl	%r15d, %edi
	jbe	.LBB24_6
# %bb.5:                                #   in Loop: Header=BB24_3 Depth=1
	movq	(%rdx,%rbp), %rdi
	movl	%r15d, %eax
	subl	%esi, %eax
	movzwl	%ax, %esi
	callq	*-24(%rdx,%rbp)
                                        # kill: def $al killed $al def $rax
	movq	16(%r13), %rcx
	jmp	.LBB24_6
.LBB24_1:
	xorl	%eax, %eax
.LBB24_7:
	orb	%r14b, %al
	movb	%al, (%r13)
	movb	6(%r13), %cl
	js	.LBB24_8
# %bb.10:
	andb	$127, %cl
	movb	%cl, 6(%r13)
	testb	%al, %al
	jne	.LBB24_9
# %bb.11:
	orb	$2, %cl
	jmp	.LBB24_12
.LBB24_8:
	orb	$-128, %cl
	movb	%cl, 6(%r13)
.LBB24_9:
	andb	$-3, %cl
.LBB24_12:
	movb	%cl, 6(%r13)
	movl	$5, %eax
	addq	$8, %rsp
	.cfi_def_cfa_offset 56
	popq	%rbx
	.cfi_def_cfa_offset 48
	popq	%r12
	.cfi_def_cfa_offset 40
	popq	%r13
	.cfi_def_cfa_offset 32
	popq	%r14
	.cfi_def_cfa_offset 24
	popq	%r15
	.cfi_def_cfa_offset 16
	popq	%rbp
	.cfi_def_cfa_offset 8
	retq
.Lfunc_end24:
	.size	ORA_indy, .Lfunc_end24-ORA_indy
	.cfi_endproc
                                        # -- End function
	.globl	ASL_zpg                 # -- Begin function ASL_zpg
	.p2align	4, 0x90
	.type	ASL_zpg,@function
ASL_zpg:                                # @ASL_zpg
	.cfi_startproc
# %bb.0:
	pushq	%rbp
	.cfi_def_cfa_offset 16
	pushq	%r15
	.cfi_def_cfa_offset 24
	pushq	%r14
	.cfi_def_cfa_offset 32
	pushq	%r12
	.cfi_def_cfa_offset 40
	pushq	%rbx
	.cfi_def_cfa_offset 48
	.cfi_offset %rbx, -48
	.cfi_offset %r12, -40
	.cfi_offset %r14, -32
	.cfi_offset %r15, -24
	.cfi_offset %rbp, -16
	movq	%rdi, %r15
	movzwl	4(%rdi), %r14d
	movq	16(%rdi), %rcx
	testq	%rcx, %rcx
	je	.LBB25_1
# %bb.3:
	movl	$24, %ebx
	xorl	%eax, %eax
	xorl	%ebp, %ebp
	jmp	.LBB25_4
	.p2align	4, 0x90
.LBB25_7:                               #   in Loop: Header=BB25_4 Depth=1
	addq	$1, %rbp
	addq	$32, %rbx
	cmpq	%rcx, %rbp
	jae	.LBB25_8
.LBB25_4:                               # =>This Inner Loop Header: Depth=1
	movq	8(%r15), %rdx
	movzwl	-8(%rdx,%rbx), %esi
	cmpw	%si, %r14w
	jb	.LBB25_7
# %bb.5:                                #   in Loop: Header=BB25_4 Depth=1
	movzwl	-6(%rdx,%rbx), %edi
	addl	%esi, %edi
	cmpl	%r14d, %edi
	jbe	.LBB25_7
# %bb.6:                                #   in Loop: Header=BB25_4 Depth=1
	movq	(%rdx,%rbx), %rdi
	movl	%r14d, %eax
	subl	%esi, %eax
	movzwl	%ax, %esi
	callq	*-24(%rdx,%rbx)
                                        # kill: def $al killed $al def $rax
	movq	16(%r15), %rcx
	jmp	.LBB25_7
.LBB25_8:
	addw	$1, 4(%r15)
	testq	%rcx, %rcx
	je	.LBB25_2
# %bb.9:
	movzbl	%al, %r12d
	movl	$24, %ebx
	xorl	%eax, %eax
	xorl	%ebp, %ebp
	jmp	.LBB25_10
	.p2align	4, 0x90
.LBB25_13:                              #   in Loop: Header=BB25_10 Depth=1
	addq	$1, %rbp
	addq	$32, %rbx
	cmpq	%rcx, %rbp
	jae	.LBB25_14
.LBB25_10:                              # =>This Inner Loop Header: Depth=1
	movq	8(%r15), %rdx
	movzwl	-8(%rdx,%rbx), %esi
	cmpw	%r12w, %si
	ja	.LBB25_13
# %bb.11:                               #   in Loop: Header=BB25_10 Depth=1
	movzwl	-6(%rdx,%rbx), %edi
	addl	%esi, %edi
	cmpl	%r12d, %edi
	jbe	.LBB25_13
# %bb.12:                               #   in Loop: Header=BB25_10 Depth=1
	movq	(%rdx,%rbx), %rdi
	movzwl	%r12w, %eax
	subl	%esi, %eax
	movzwl	%ax, %esi
	callq	*-24(%rdx,%rbx)
                                        # kill: def $al killed $al def $rax
	movq	16(%r15), %rcx
	jmp	.LBB25_13
.LBB25_1:
	addl	$1, %r14d
	movw	%r14w, 4(%r15)
.LBB25_2:
	movb	6(%r15), %cl
	addq	$6, %r15
	andb	$127, %cl
	xorl	%eax, %eax
	jmp	.LBB25_21
.LBB25_14:
	movzbl	%al, %r14d
	addl	%r14d, %r14d
	testq	%rcx, %rcx
	je	.LBB25_20
# %bb.15:
	movl	$24, %ebx
	xorl	%ebp, %ebp
	jmp	.LBB25_16
	.p2align	4, 0x90
.LBB25_19:                              #   in Loop: Header=BB25_16 Depth=1
	addq	$1, %rbp
	addq	$32, %rbx
	cmpq	%rcx, %rbp
	jae	.LBB25_20
.LBB25_16:                              # =>This Inner Loop Header: Depth=1
	movq	8(%r15), %rax
	movzwl	-8(%rax,%rbx), %edx
	cmpw	%r12w, %dx
	ja	.LBB25_19
# %bb.17:                               #   in Loop: Header=BB25_16 Depth=1
	movzwl	-6(%rax,%rbx), %esi
	addl	%edx, %esi
	cmpl	%r12d, %esi
	jbe	.LBB25_19
# %bb.18:                               #   in Loop: Header=BB25_16 Depth=1
	movq	(%rax,%rbx), %rdi
	movzwl	%r12w, %ecx
	subl	%edx, %ecx
	movzwl	%cx, %esi
	movzbl	%r14b, %edx
	callq	*-16(%rax,%rbx)
	movq	16(%r15), %rcx
	jmp	.LBB25_19
.LBB25_20:
	movzwl	%r14w, %eax
	movb	6(%r15), %cl
	addq	$6, %r15
	movl	%ecx, %edx
	andb	$127, %dl
	orb	$-128, %cl
	testb	%r14b, %r14b
	movzbl	%cl, %esi
	movzbl	%dl, %ecx
	cmovsl	%esi, %ecx
.LBB25_21:
	movl	%ecx, %edx
	andb	$-3, %dl
	orb	$2, %cl
	testb	%al, %al
	movzbl	%cl, %ecx
	movzbl	%dl, %edx
	cmovel	%ecx, %edx
	movl	%edx, %ecx
	andb	$-2, %cl
	orb	$1, %dl
	testl	$256, %eax              # imm = 0x100
	movzbl	%cl, %eax
	movzbl	%dl, %ecx
	cmovel	%eax, %ecx
	movb	%cl, (%r15)
	movl	$5, %eax
	popq	%rbx
	.cfi_def_cfa_offset 40
	popq	%r12
	.cfi_def_cfa_offset 32
	popq	%r14
	.cfi_def_cfa_offset 24
	popq	%r15
	.cfi_def_cfa_offset 16
	popq	%rbp
	.cfi_def_cfa_offset 8
	retq
.Lfunc_end25:
	.size	ASL_zpg, .Lfunc_end25-ASL_zpg
	.cfi_endproc
                                        # -- End function
	.globl	ASL_zpgx                # -- Begin function ASL_zpgx
	.p2align	4, 0x90
	.type	ASL_zpgx,@function
ASL_zpgx:                               # @ASL_zpgx
	.cfi_startproc
# %bb.0:
	pushq	%rbp
	.cfi_def_cfa_offset 16
	pushq	%r15
	.cfi_def_cfa_offset 24
	pushq	%r14
	.cfi_def_cfa_offset 32
	pushq	%r13
	.cfi_def_cfa_offset 40
	pushq	%r12
	.cfi_def_cfa_offset 48
	pushq	%rbx
	.cfi_def_cfa_offset 56
	pushq	%rax
	.cfi_def_cfa_offset 64
	.cfi_offset %rbx, -56
	.cfi_offset %r12, -48
	.cfi_offset %r13, -40
	.cfi_offset %r14, -32
	.cfi_offset %r15, -24
	.cfi_offset %rbp, -16
	movq	%rdi, %r12
	movzwl	4(%rdi), %r15d
	movq	16(%rdi), %rcx
	testq	%rcx, %rcx
	je	.LBB26_1
# %bb.2:
	movzwl	%r15w, %r14d
	movl	$24, %ebx
	xorl	%eax, %eax
	xorl	%ebp, %ebp
	jmp	.LBB26_3
	.p2align	4, 0x90
.LBB26_6:                               #   in Loop: Header=BB26_3 Depth=1
	addq	$1, %rbp
	addq	$32, %rbx
	cmpq	%rcx, %rbp
	jae	.LBB26_7
.LBB26_3:                               # =>This Inner Loop Header: Depth=1
	movq	8(%r12), %rdx
	movzwl	-8(%rdx,%rbx), %esi
	cmpw	%si, %r15w
	jb	.LBB26_6
# %bb.4:                                #   in Loop: Header=BB26_3 Depth=1
	movzwl	-6(%rdx,%rbx), %edi
	addl	%esi, %edi
	cmpl	%r14d, %edi
	jbe	.LBB26_6
# %bb.5:                                #   in Loop: Header=BB26_3 Depth=1
	movq	(%rdx,%rbx), %rdi
	movl	%r15d, %eax
	subl	%esi, %eax
	movzwl	%ax, %esi
	callq	*-24(%rdx,%rbx)
                                        # kill: def $al killed $al def $rax
	movq	16(%r12), %rcx
	jmp	.LBB26_6
.LBB26_7:
	movzwl	4(%r12), %r15d
	jmp	.LBB26_8
.LBB26_1:
	xorl	%ecx, %ecx
	xorl	%eax, %eax
.LBB26_8:
	addb	1(%r12), %al
	addl	$1, %r15d
	movw	%r15w, 4(%r12)
	testq	%rcx, %rcx
	je	.LBB26_9
# %bb.10:
	movzbl	%al, %r13d
	movzwl	%r13w, %r14d
	movl	$24, %ebx
	xorl	%eax, %eax
	xorl	%ebp, %ebp
	jmp	.LBB26_11
	.p2align	4, 0x90
.LBB26_14:                              #   in Loop: Header=BB26_11 Depth=1
	addq	$1, %rbp
	addq	$32, %rbx
	cmpq	%rcx, %rbp
	jae	.LBB26_15
.LBB26_11:                              # =>This Inner Loop Header: Depth=1
	movq	8(%r12), %rdx
	movzwl	-8(%rdx,%rbx), %esi
	cmpw	%r13w, %si
	ja	.LBB26_14
# %bb.12:                               #   in Loop: Header=BB26_11 Depth=1
	movzwl	-6(%rdx,%rbx), %edi
	addl	%esi, %edi
	cmpl	%r14d, %edi
	jbe	.LBB26_14
# %bb.13:                               #   in Loop: Header=BB26_11 Depth=1
	movq	(%rdx,%rbx), %rdi
	movl	%r14d, %eax
	subl	%esi, %eax
	movzwl	%ax, %esi
	callq	*-24(%rdx,%rbx)
                                        # kill: def $al killed $al def $rax
	movq	16(%r12), %rcx
	jmp	.LBB26_14
.LBB26_15:
	movzbl	%al, %r15d
	addl	%r15d, %r15d
	testq	%rcx, %rcx
	je	.LBB26_21
# %bb.16:
	movl	$24, %ebx
	xorl	%ebp, %ebp
	jmp	.LBB26_17
	.p2align	4, 0x90
.LBB26_20:                              #   in Loop: Header=BB26_17 Depth=1
	addq	$1, %rbp
	addq	$32, %rbx
	cmpq	%rcx, %rbp
	jae	.LBB26_21
.LBB26_17:                              # =>This Inner Loop Header: Depth=1
	movq	8(%r12), %rax
	movzwl	-8(%rax,%rbx), %edx
	cmpw	%r13w, %dx
	ja	.LBB26_20
# %bb.18:                               #   in Loop: Header=BB26_17 Depth=1
	movzwl	-6(%rax,%rbx), %esi
	addl	%edx, %esi
	cmpl	%r14d, %esi
	jbe	.LBB26_20
# %bb.19:                               #   in Loop: Header=BB26_17 Depth=1
	movq	(%rax,%rbx), %rdi
	movl	%r14d, %ecx
	subl	%edx, %ecx
	movzwl	%cx, %esi
	movzbl	%r15b, %edx
	callq	*-16(%rax,%rbx)
	movq	16(%r12), %rcx
	jmp	.LBB26_20
.LBB26_21:
	movzwl	%r15w, %eax
	movb	6(%r12), %cl
	addq	$6, %r12
	movl	%ecx, %edx
	andb	$127, %dl
	orb	$-128, %cl
	testb	%r15b, %r15b
	movzbl	%cl, %esi
	movzbl	%dl, %ecx
	cmovsl	%esi, %ecx
	jmp	.LBB26_22
.LBB26_9:
	movb	6(%r12), %cl
	addq	$6, %r12
	andb	$127, %cl
	xorl	%eax, %eax
.LBB26_22:
	movl	%ecx, %edx
	andb	$-3, %dl
	orb	$2, %cl
	testb	%al, %al
	movzbl	%cl, %ecx
	movzbl	%dl, %edx
	cmovel	%ecx, %edx
	movl	%edx, %ecx
	andb	$-2, %cl
	orb	$1, %dl
	testl	$256, %eax              # imm = 0x100
	movzbl	%cl, %eax
	movzbl	%dl, %ecx
	cmovel	%eax, %ecx
	movb	%cl, (%r12)
	movl	$6, %eax
	addq	$8, %rsp
	.cfi_def_cfa_offset 56
	popq	%rbx
	.cfi_def_cfa_offset 48
	popq	%r12
	.cfi_def_cfa_offset 40
	popq	%r13
	.cfi_def_cfa_offset 32
	popq	%r14
	.cfi_def_cfa_offset 24
	popq	%r15
	.cfi_def_cfa_offset 16
	popq	%rbp
	.cfi_def_cfa_offset 8
	retq
.Lfunc_end26:
	.size	ASL_zpgx, .Lfunc_end26-ASL_zpgx
	.cfi_endproc
                                        # -- End function
	.globl	ASL_abss                # -- Begin function ASL_abss
	.p2align	4, 0x90
	.type	ASL_abss,@function
ASL_abss:                               # @ASL_abss
	.cfi_startproc
# %bb.0:
	pushq	%rbp
	.cfi_def_cfa_offset 16
	pushq	%r15
	.cfi_def_cfa_offset 24
	pushq	%r14
	.cfi_def_cfa_offset 32
	pushq	%r13
	.cfi_def_cfa_offset 40
	pushq	%r12
	.cfi_def_cfa_offset 48
	pushq	%rbx
	.cfi_def_cfa_offset 56
	pushq	%rax
	.cfi_def_cfa_offset 64
	.cfi_offset %rbx, -56
	.cfi_offset %r12, -48
	.cfi_offset %r13, -40
	.cfi_offset %r14, -32
	.cfi_offset %r15, -24
	.cfi_offset %rbp, -16
	movq	%rdi, %r12
	movzwl	4(%rdi), %r13d
	movq	16(%rdi), %rcx
	testq	%rcx, %rcx
	je	.LBB27_27
# %bb.1:
	movzwl	%r13w, %r14d
	movl	$24, %ebx
	xorl	%eax, %eax
	xorl	%ebp, %ebp
	jmp	.LBB27_2
	.p2align	4, 0x90
.LBB27_5:                               #   in Loop: Header=BB27_2 Depth=1
	addq	$1, %rbp
	addq	$32, %rbx
	cmpq	%rcx, %rbp
	jae	.LBB27_6
.LBB27_2:                               # =>This Inner Loop Header: Depth=1
	movq	8(%r12), %rdx
	movzwl	-8(%rdx,%rbx), %esi
	cmpw	%si, %r13w
	jb	.LBB27_5
# %bb.3:                                #   in Loop: Header=BB27_2 Depth=1
	movzwl	-6(%rdx,%rbx), %edi
	addl	%esi, %edi
	cmpl	%r14d, %edi
	jbe	.LBB27_5
# %bb.4:                                #   in Loop: Header=BB27_2 Depth=1
	movq	(%rdx,%rbx), %rdi
	movl	%r13d, %eax
	subl	%esi, %eax
	movzwl	%ax, %esi
	callq	*-24(%rdx,%rbx)
                                        # kill: def $al killed $al def $rax
	movq	16(%r12), %rcx
	jmp	.LBB27_5
.LBB27_6:
	movl	4(%r12), %r13d
	testq	%rcx, %rcx
	je	.LBB27_27
# %bb.7:
	movzbl	%al, %r14d
	addl	$1, %r13d
	movzwl	%r13w, %r15d
	movl	$24, %ebx
	xorl	%eax, %eax
	xorl	%ebp, %ebp
	jmp	.LBB27_8
	.p2align	4, 0x90
.LBB27_11:                              #   in Loop: Header=BB27_8 Depth=1
	addq	$1, %rbp
	addq	$32, %rbx
	cmpq	%rcx, %rbp
	jae	.LBB27_12
.LBB27_8:                               # =>This Inner Loop Header: Depth=1
	movq	8(%r12), %rdx
	movzwl	-8(%rdx,%rbx), %esi
	cmpw	%si, %r13w
	jb	.LBB27_11
# %bb.9:                                #   in Loop: Header=BB27_8 Depth=1
	movzwl	-6(%rdx,%rbx), %edi
	addl	%esi, %edi
	cmpl	%r15d, %edi
	jbe	.LBB27_11
# %bb.10:                               #   in Loop: Header=BB27_8 Depth=1
	movq	(%rdx,%rbx), %rdi
	movl	%r13d, %eax
	subl	%esi, %eax
	movzwl	%ax, %esi
	callq	*-24(%rdx,%rbx)
                                        # kill: def $al killed $al def $rax
	movq	16(%r12), %rcx
	jmp	.LBB27_11
.LBB27_27:
	addl	$2, %r13d
	movw	%r13w, 4(%r12)
.LBB27_13:
	movb	6(%r12), %cl
	addq	$6, %r12
	andb	$127, %cl
	xorl	%eax, %eax
	jmp	.LBB27_26
.LBB27_12:
	addw	$2, 4(%r12)
	testq	%rcx, %rcx
	je	.LBB27_13
# %bb.14:
	movzbl	%al, %eax
	shll	$8, %eax
	movzwl	%r14w, %r13d
	orl	%eax, %r13d
	movzwl	%r13w, %r14d
	movl	$24, %ebx
	xorl	%eax, %eax
	xorl	%ebp, %ebp
	jmp	.LBB27_15
	.p2align	4, 0x90
.LBB27_18:                              #   in Loop: Header=BB27_15 Depth=1
	addq	$1, %rbp
	addq	$32, %rbx
	cmpq	%rcx, %rbp
	jae	.LBB27_19
.LBB27_15:                              # =>This Inner Loop Header: Depth=1
	movq	8(%r12), %rdx
	movzwl	-8(%rdx,%rbx), %esi
	cmpw	%si, %r13w
	jb	.LBB27_18
# %bb.16:                               #   in Loop: Header=BB27_15 Depth=1
	movzwl	-6(%rdx,%rbx), %edi
	addl	%esi, %edi
	cmpl	%r14d, %edi
	jbe	.LBB27_18
# %bb.17:                               #   in Loop: Header=BB27_15 Depth=1
	movq	(%rdx,%rbx), %rdi
	movl	%r13d, %eax
	subl	%esi, %eax
	movzwl	%ax, %esi
	callq	*-24(%rdx,%rbx)
                                        # kill: def $al killed $al def $rax
	movq	16(%r12), %rcx
	jmp	.LBB27_18
.LBB27_19:
	movzbl	%al, %r15d
	addl	%r15d, %r15d
	testq	%rcx, %rcx
	je	.LBB27_25
# %bb.20:
	movl	$24, %ebx
	xorl	%ebp, %ebp
	jmp	.LBB27_21
	.p2align	4, 0x90
.LBB27_24:                              #   in Loop: Header=BB27_21 Depth=1
	addq	$1, %rbp
	addq	$32, %rbx
	cmpq	%rcx, %rbp
	jae	.LBB27_25
.LBB27_21:                              # =>This Inner Loop Header: Depth=1
	movq	8(%r12), %rax
	movzwl	-8(%rax,%rbx), %edx
	cmpw	%dx, %r13w
	jb	.LBB27_24
# %bb.22:                               #   in Loop: Header=BB27_21 Depth=1
	movzwl	-6(%rax,%rbx), %esi
	addl	%edx, %esi
	cmpl	%r14d, %esi
	jbe	.LBB27_24
# %bb.23:                               #   in Loop: Header=BB27_21 Depth=1
	movq	(%rax,%rbx), %rdi
	movl	%r13d, %ecx
	subl	%edx, %ecx
	movzwl	%cx, %esi
	movzbl	%r15b, %edx
	callq	*-16(%rax,%rbx)
	movq	16(%r12), %rcx
	jmp	.LBB27_24
.LBB27_25:
	movzwl	%r15w, %eax
	movb	6(%r12), %cl
	addq	$6, %r12
	movl	%ecx, %edx
	andb	$127, %dl
	orb	$-128, %cl
	testb	%r15b, %r15b
	movzbl	%cl, %esi
	movzbl	%dl, %ecx
	cmovsl	%esi, %ecx
.LBB27_26:
	movl	%ecx, %edx
	andb	$-3, %dl
	orb	$2, %cl
	testb	%al, %al
	movzbl	%cl, %ecx
	movzbl	%dl, %edx
	cmovel	%ecx, %edx
	movl	%edx, %ecx
	andb	$-2, %cl
	orb	$1, %dl
	testl	$256, %eax              # imm = 0x100
	movzbl	%cl, %eax
	movzbl	%dl, %ecx
	cmovel	%eax, %ecx
	movb	%cl, (%r12)
	movl	$6, %eax
	addq	$8, %rsp
	.cfi_def_cfa_offset 56
	popq	%rbx
	.cfi_def_cfa_offset 48
	popq	%r12
	.cfi_def_cfa_offset 40
	popq	%r13
	.cfi_def_cfa_offset 32
	popq	%r14
	.cfi_def_cfa_offset 24
	popq	%r15
	.cfi_def_cfa_offset 16
	popq	%rbp
	.cfi_def_cfa_offset 8
	retq
.Lfunc_end27:
	.size	ASL_abss, .Lfunc_end27-ASL_abss
	.cfi_endproc
                                        # -- End function
	.globl	ASL_absx                # -- Begin function ASL_absx
	.p2align	4, 0x90
	.type	ASL_absx,@function
ASL_absx:                               # @ASL_absx
	.cfi_startproc
# %bb.0:
	pushq	%rbp
	.cfi_def_cfa_offset 16
	pushq	%r15
	.cfi_def_cfa_offset 24
	pushq	%r14
	.cfi_def_cfa_offset 32
	pushq	%r13
	.cfi_def_cfa_offset 40
	pushq	%r12
	.cfi_def_cfa_offset 48
	pushq	%rbx
	.cfi_def_cfa_offset 56
	pushq	%rax
	.cfi_def_cfa_offset 64
	.cfi_offset %rbx, -56
	.cfi_offset %r12, -48
	.cfi_offset %r13, -40
	.cfi_offset %r14, -32
	.cfi_offset %r15, -24
	.cfi_offset %rbp, -16
	movq	%rdi, %r12
	movzwl	4(%rdi), %r13d
	movq	16(%rdi), %rcx
	testq	%rcx, %rcx
	je	.LBB28_13
# %bb.1:
	movzwl	%r13w, %r14d
	movl	$24, %ebx
	xorl	%eax, %eax
	xorl	%ebp, %ebp
	jmp	.LBB28_3
	.p2align	4, 0x90
.LBB28_2:                               #   in Loop: Header=BB28_3 Depth=1
	addq	$1, %rbp
	addq	$32, %rbx
	cmpq	%rcx, %rbp
	jae	.LBB28_6
.LBB28_3:                               # =>This Inner Loop Header: Depth=1
	movq	8(%r12), %rdx
	movzwl	-8(%rdx,%rbx), %esi
	cmpw	%si, %r13w
	jb	.LBB28_2
# %bb.4:                                #   in Loop: Header=BB28_3 Depth=1
	movzwl	-6(%rdx,%rbx), %edi
	addl	%esi, %edi
	cmpl	%r14d, %edi
	jbe	.LBB28_2
# %bb.5:                                #   in Loop: Header=BB28_3 Depth=1
	movq	(%rdx,%rbx), %rdi
	movl	%r13d, %eax
	subl	%esi, %eax
	movzwl	%ax, %esi
	callq	*-24(%rdx,%rbx)
                                        # kill: def $al killed $al def $rax
	movq	16(%r12), %rcx
	jmp	.LBB28_2
.LBB28_6:
	movzbl	%al, %r14d
	movl	4(%r12), %r13d
	testq	%rcx, %rcx
	je	.LBB28_14
# %bb.7:
	addl	$1, %r13d
	movzwl	%r13w, %r15d
	movl	$24, %ebx
	xorl	%eax, %eax
	xorl	%ebp, %ebp
	jmp	.LBB28_9
	.p2align	4, 0x90
.LBB28_8:                               #   in Loop: Header=BB28_9 Depth=1
	addq	$1, %rbp
	addq	$32, %rbx
	cmpq	%rcx, %rbp
	jae	.LBB28_12
.LBB28_9:                               # =>This Inner Loop Header: Depth=1
	movq	8(%r12), %rdx
	movzwl	-8(%rdx,%rbx), %esi
	cmpw	%si, %r13w
	jb	.LBB28_8
# %bb.10:                               #   in Loop: Header=BB28_9 Depth=1
	movzwl	-6(%rdx,%rbx), %edi
	addl	%esi, %edi
	cmpl	%r15d, %edi
	jbe	.LBB28_8
# %bb.11:                               #   in Loop: Header=BB28_9 Depth=1
	movq	(%rdx,%rbx), %rdi
	movl	%r13d, %eax
	subl	%esi, %eax
	movzwl	%ax, %esi
	callq	*-24(%rdx,%rbx)
                                        # kill: def $al killed $al def $rax
	movq	16(%r12), %rcx
	jmp	.LBB28_8
.LBB28_12:
	movzwl	4(%r12), %r13d
	jmp	.LBB28_16
.LBB28_13:
	xorl	%ecx, %ecx
	xorl	%r14d, %r14d
	jmp	.LBB28_15
.LBB28_14:
	xorl	%ecx, %ecx
.LBB28_15:
	xorl	%eax, %eax
.LBB28_16:
	movzbl	1(%r12), %edx
	addl	$2, %r13d
	movw	%r13w, 4(%r12)
	testq	%rcx, %rcx
	je	.LBB28_29
# %bb.17:
	movzbl	%al, %eax
	shll	$8, %eax
	movzwl	%r14w, %r13d
	orl	%eax, %r13d
	addl	%edx, %r13d
	movzwl	%r13w, %r14d
	movl	$24, %ebx
	xorl	%eax, %eax
	xorl	%ebp, %ebp
	jmp	.LBB28_19
	.p2align	4, 0x90
.LBB28_18:                              #   in Loop: Header=BB28_19 Depth=1
	addq	$1, %rbp
	addq	$32, %rbx
	cmpq	%rcx, %rbp
	jae	.LBB28_22
.LBB28_19:                              # =>This Inner Loop Header: Depth=1
	movq	8(%r12), %rdx
	movzwl	-8(%rdx,%rbx), %esi
	cmpw	%si, %r13w
	jb	.LBB28_18
# %bb.20:                               #   in Loop: Header=BB28_19 Depth=1
	movzwl	-6(%rdx,%rbx), %edi
	addl	%esi, %edi
	cmpl	%r14d, %edi
	jbe	.LBB28_18
# %bb.21:                               #   in Loop: Header=BB28_19 Depth=1
	movq	(%rdx,%rbx), %rdi
	movl	%r13d, %eax
	subl	%esi, %eax
	movzwl	%ax, %esi
	callq	*-24(%rdx,%rbx)
                                        # kill: def $al killed $al def $rax
	movq	16(%r12), %rcx
	jmp	.LBB28_18
.LBB28_22:
	movzbl	%al, %r15d
	addl	%r15d, %r15d
	testq	%rcx, %rcx
	je	.LBB28_28
# %bb.23:
	movl	$24, %ebx
	xorl	%ebp, %ebp
	jmp	.LBB28_25
	.p2align	4, 0x90
.LBB28_24:                              #   in Loop: Header=BB28_25 Depth=1
	addq	$1, %rbp
	addq	$32, %rbx
	cmpq	%rcx, %rbp
	jae	.LBB28_28
.LBB28_25:                              # =>This Inner Loop Header: Depth=1
	movq	8(%r12), %rax
	movzwl	-8(%rax,%rbx), %edx
	cmpw	%dx, %r13w
	jb	.LBB28_24
# %bb.26:                               #   in Loop: Header=BB28_25 Depth=1
	movzwl	-6(%rax,%rbx), %esi
	addl	%edx, %esi
	cmpl	%r14d, %esi
	jbe	.LBB28_24
# %bb.27:                               #   in Loop: Header=BB28_25 Depth=1
	movq	(%rax,%rbx), %rdi
	movl	%r13d, %ecx
	subl	%edx, %ecx
	movzwl	%cx, %esi
	movzbl	%r15b, %edx
	callq	*-16(%rax,%rbx)
	movq	16(%r12), %rcx
	jmp	.LBB28_24
.LBB28_28:
	movzwl	%r15w, %eax
	movb	6(%r12), %cl
	addq	$6, %r12
	movl	%ecx, %edx
	andb	$127, %dl
	orb	$-128, %cl
	testb	%r15b, %r15b
	movzbl	%cl, %esi
	movzbl	%dl, %ecx
	cmovsl	%esi, %ecx
	jmp	.LBB28_30
.LBB28_29:
	movb	6(%r12), %cl
	addq	$6, %r12
	andb	$127, %cl
	xorl	%eax, %eax
.LBB28_30:
	movl	%ecx, %edx
	andb	$-3, %dl
	orb	$2, %cl
	testb	%al, %al
	movzbl	%cl, %ecx
	movzbl	%dl, %edx
	cmovel	%ecx, %edx
	movl	%edx, %ecx
	andb	$-2, %cl
	orb	$1, %dl
	testl	$256, %eax              # imm = 0x100
	movzbl	%cl, %eax
	movzbl	%dl, %ecx
	cmovel	%eax, %ecx
	movb	%cl, (%r12)
	movl	$7, %eax
	addq	$8, %rsp
	.cfi_def_cfa_offset 56
	popq	%rbx
	.cfi_def_cfa_offset 48
	popq	%r12
	.cfi_def_cfa_offset 40
	popq	%r13
	.cfi_def_cfa_offset 32
	popq	%r14
	.cfi_def_cfa_offset 24
	popq	%r15
	.cfi_def_cfa_offset 16
	popq	%rbp
	.cfi_def_cfa_offset 8
	retq
.Lfunc_end28:
	.size	ASL_absx, .Lfunc_end28-ASL_absx
	.cfi_endproc
                                        # -- End function
	.globl	ASLA                    # -- Begin function ASLA
	.p2align	4, 0x90
	.type	ASLA,@function
ASLA:                                   # @ASLA
	.cfi_startproc
# %bb.0:
	movzbl	(%rdi), %eax
	addl	%eax, %eax
	movb	6(%rdi), %cl
	movl	%ecx, %edx
	andb	$127, %dl
	orb	$-128, %cl
	movzbl	%cl, %ecx
	movzbl	%dl, %edx
	testb	%al, %al
	cmovsl	%ecx, %edx
	movl	%edx, %ecx
	andb	$-3, %cl
	orb	$2, %dl
	testb	%al, %al
	movb	%al, (%rdi)
	movzbl	%dl, %edx
	movzbl	%cl, %ecx
	cmovel	%edx, %ecx
	movl	%ecx, %edx
	andb	$-2, %dl
	orb	$1, %cl
	testl	$256, %eax              # imm = 0x100
	movzbl	%dl, %eax
	movzbl	%cl, %ecx
	cmovel	%eax, %ecx
	movb	%cl, 6(%rdi)
	movl	$2, %eax
	retq
.Lfunc_end29:
	.size	ASLA, .Lfunc_end29-ASLA
	.cfi_endproc
                                        # -- End function
	.globl	SLO_zpg                 # -- Begin function SLO_zpg
	.p2align	4, 0x90
	.type	SLO_zpg,@function
SLO_zpg:                                # @SLO_zpg
	.cfi_startproc
# %bb.0:
	pushq	%rbp
	.cfi_def_cfa_offset 16
	pushq	%r15
	.cfi_def_cfa_offset 24
	pushq	%r14
	.cfi_def_cfa_offset 32
	pushq	%r13
	.cfi_def_cfa_offset 40
	pushq	%r12
	.cfi_def_cfa_offset 48
	pushq	%rbx
	.cfi_def_cfa_offset 56
	pushq	%rax
	.cfi_def_cfa_offset 64
	.cfi_offset %rbx, -56
	.cfi_offset %r12, -48
	.cfi_offset %r13, -40
	.cfi_offset %r14, -32
	.cfi_offset %r15, -24
	.cfi_offset %rbp, -16
	movq	%rdi, %r13
	movzwl	4(%rdi), %r15d
	movq	16(%rdi), %rcx
	testq	%rcx, %rcx
	je	.LBB30_1
# %bb.3:
	movl	$24, %ebx
	xorl	%eax, %eax
	xorl	%ebp, %ebp
	jmp	.LBB30_4
	.p2align	4, 0x90
.LBB30_7:                               #   in Loop: Header=BB30_4 Depth=1
	addq	$1, %rbp
	addq	$32, %rbx
	cmpq	%rcx, %rbp
	jae	.LBB30_8
.LBB30_4:                               # =>This Inner Loop Header: Depth=1
	movq	8(%r13), %rdx
	movzwl	-8(%rdx,%rbx), %esi
	cmpw	%si, %r15w
	jb	.LBB30_7
# %bb.5:                                #   in Loop: Header=BB30_4 Depth=1
	movzwl	-6(%rdx,%rbx), %edi
	addl	%esi, %edi
	cmpl	%r15d, %edi
	jbe	.LBB30_7
# %bb.6:                                #   in Loop: Header=BB30_4 Depth=1
	movq	(%rdx,%rbx), %rdi
	movl	%r15d, %eax
	subl	%esi, %eax
	movzwl	%ax, %esi
	callq	*-24(%rdx,%rbx)
                                        # kill: def $al killed $al def $rax
	movq	16(%r13), %rcx
	jmp	.LBB30_7
.LBB30_8:
	movl	4(%r13), %r15d
	addl	$1, %r15d
	movw	%r15w, 4(%r13)
	testq	%rcx, %rcx
	je	.LBB30_2
# %bb.9:
	movzbl	%al, %r14d
	movl	$24, %ebx
	xorl	%eax, %eax
	xorl	%ebp, %ebp
	jmp	.LBB30_10
	.p2align	4, 0x90
.LBB30_13:                              #   in Loop: Header=BB30_10 Depth=1
	addq	$1, %rbp
	addq	$32, %rbx
	cmpq	%rcx, %rbp
	jae	.LBB30_14
.LBB30_10:                              # =>This Inner Loop Header: Depth=1
	movq	8(%r13), %rdx
	movzwl	-8(%rdx,%rbx), %esi
	cmpw	%r14w, %si
	ja	.LBB30_13
# %bb.11:                               #   in Loop: Header=BB30_10 Depth=1
	movzwl	-6(%rdx,%rbx), %edi
	addl	%esi, %edi
	cmpl	%r14d, %edi
	jbe	.LBB30_13
# %bb.12:                               #   in Loop: Header=BB30_10 Depth=1
	movq	(%rdx,%rbx), %rdi
	movzwl	%r14w, %eax
	subl	%esi, %eax
	movzwl	%ax, %esi
	callq	*-24(%rdx,%rbx)
                                        # kill: def $al killed $al def $rax
	movq	16(%r13), %rcx
	jmp	.LBB30_13
.LBB30_14:
	movzbl	%al, %r15d
	addl	%r15d, %r15d
	testq	%rcx, %rcx
	je	.LBB30_15
# %bb.16:
	movl	$24, %ebx
	xorl	%ebp, %ebp
	jmp	.LBB30_17
	.p2align	4, 0x90
.LBB30_20:                              #   in Loop: Header=BB30_17 Depth=1
	addq	$1, %rbp
	addq	$32, %rbx
	cmpq	%rcx, %rbp
	jae	.LBB30_21
.LBB30_17:                              # =>This Inner Loop Header: Depth=1
	movq	8(%r13), %rax
	movzwl	-8(%rax,%rbx), %edx
	cmpw	%r14w, %dx
	ja	.LBB30_20
# %bb.18:                               #   in Loop: Header=BB30_17 Depth=1
	movzwl	-6(%rax,%rbx), %esi
	addl	%edx, %esi
	cmpl	%r14d, %esi
	jbe	.LBB30_20
# %bb.19:                               #   in Loop: Header=BB30_17 Depth=1
	movq	(%rax,%rbx), %rdi
	movzwl	%r14w, %ecx
	subl	%edx, %ecx
	movzwl	%cx, %esi
	movzbl	%r15b, %edx
	callq	*-16(%rax,%rbx)
	movq	16(%r13), %rcx
	jmp	.LBB30_20
.LBB30_1:
	addl	$1, %r15d
	movw	%r15w, 4(%r13)
.LBB30_2:
	leaq	6(%r13), %rax
	movq	%rax, (%rsp)            # 8-byte Spill
	movb	6(%r13), %dl
	andb	$127, %dl
	xorl	%ecx, %ecx
	xorl	%eax, %eax
	jmp	.LBB30_22
.LBB30_15:
	xorl	%ecx, %ecx
.LBB30_21:
	movzwl	%r15w, %eax
	leaq	6(%r13), %rdx
	movq	%rdx, (%rsp)            # 8-byte Spill
	movb	6(%r13), %dl
	movl	%edx, %ebx
	andb	$127, %bl
	orb	$-128, %dl
	testb	%r15b, %r15b
	movzbl	%dl, %esi
	movzbl	%bl, %edx
	cmovsl	%esi, %edx
	movzwl	4(%r13), %r15d
.LBB30_22:
	movl	%edx, %ebx
	andb	$-3, %bl
	orb	$2, %dl
	testb	%al, %al
	movzbl	%dl, %edx
	movzbl	%bl, %esi
	cmovel	%edx, %esi
	movl	%esi, %edx
	andb	$-2, %dl
	orb	$1, %sil
	testl	$256, %eax              # imm = 0x100
	movzbl	%dl, %eax
	movzbl	%sil, %edx
	cmovel	%eax, %edx
	movb	%dl, 6(%r13)
	movb	(%r13), %r14b
	testq	%rcx, %rcx
	je	.LBB30_23
# %bb.24:
	movzwl	%r15w, %r12d
	movl	$24, %ebx
	xorl	%eax, %eax
	xorl	%ebp, %ebp
	jmp	.LBB30_25
	.p2align	4, 0x90
.LBB30_28:                              #   in Loop: Header=BB30_25 Depth=1
	addq	$1, %rbp
	addq	$32, %rbx
	cmpq	%rcx, %rbp
	jae	.LBB30_29
.LBB30_25:                              # =>This Inner Loop Header: Depth=1
	movq	8(%r13), %rdx
	movzwl	-8(%rdx,%rbx), %esi
	cmpw	%si, %r15w
	jb	.LBB30_28
# %bb.26:                               #   in Loop: Header=BB30_25 Depth=1
	movzwl	-6(%rdx,%rbx), %edi
	addl	%esi, %edi
	cmpl	%r12d, %edi
	jbe	.LBB30_28
# %bb.27:                               #   in Loop: Header=BB30_25 Depth=1
	movq	(%rdx,%rbx), %rdi
	movl	%r15d, %eax
	subl	%esi, %eax
	movzwl	%ax, %esi
	callq	*-24(%rdx,%rbx)
                                        # kill: def $al killed $al def $rax
	movq	16(%r13), %rcx
	jmp	.LBB30_28
.LBB30_29:
	addw	$1, 4(%r13)
	testq	%rcx, %rcx
	je	.LBB30_30
# %bb.31:
	movzbl	%al, %r12d
	movl	$24, %ebx
	xorl	%eax, %eax
	xorl	%ebp, %ebp
	movq	(%rsp), %r15            # 8-byte Reload
	jmp	.LBB30_32
	.p2align	4, 0x90
.LBB30_35:                              #   in Loop: Header=BB30_32 Depth=1
	addq	$1, %rbp
	addq	$32, %rbx
	cmpq	%rcx, %rbp
	jae	.LBB30_36
.LBB30_32:                              # =>This Inner Loop Header: Depth=1
	movq	8(%r13), %rdx
	movzwl	-8(%rdx,%rbx), %esi
	cmpw	%r12w, %si
	ja	.LBB30_35
# %bb.33:                               #   in Loop: Header=BB30_32 Depth=1
	movzwl	-6(%rdx,%rbx), %edi
	addl	%esi, %edi
	cmpl	%r12d, %edi
	jbe	.LBB30_35
# %bb.34:                               #   in Loop: Header=BB30_32 Depth=1
	movq	(%rdx,%rbx), %rdi
	movzwl	%r12w, %eax
	subl	%esi, %eax
	movzwl	%ax, %esi
	callq	*-24(%rdx,%rbx)
                                        # kill: def $al killed $al def $rax
	movq	16(%r13), %rcx
	jmp	.LBB30_35
.LBB30_23:
	addl	$1, %r15d
	movw	%r15w, 4(%r13)
.LBB30_30:
	xorl	%eax, %eax
	movq	(%rsp), %r15            # 8-byte Reload
.LBB30_36:
	orb	%r14b, %al
	movb	%al, (%r13)
	movb	6(%r13), %cl
	js	.LBB30_37
# %bb.39:
	andb	$127, %cl
	movb	%cl, (%r15)
	testb	%al, %al
	jne	.LBB30_38
# %bb.40:
	orb	$2, %cl
	jmp	.LBB30_41
.LBB30_37:
	orb	$-128, %cl
	movb	%cl, (%r15)
.LBB30_38:
	andb	$-3, %cl
.LBB30_41:
	movb	%cl, (%r15)
	movl	$5, %eax
	addq	$8, %rsp
	.cfi_def_cfa_offset 56
	popq	%rbx
	.cfi_def_cfa_offset 48
	popq	%r12
	.cfi_def_cfa_offset 40
	popq	%r13
	.cfi_def_cfa_offset 32
	popq	%r14
	.cfi_def_cfa_offset 24
	popq	%r15
	.cfi_def_cfa_offset 16
	popq	%rbp
	.cfi_def_cfa_offset 8
	retq
.Lfunc_end30:
	.size	SLO_zpg, .Lfunc_end30-SLO_zpg
	.cfi_endproc
                                        # -- End function
	.globl	SLO_zpgx                # -- Begin function SLO_zpgx
	.p2align	4, 0x90
	.type	SLO_zpgx,@function
SLO_zpgx:                               # @SLO_zpgx
	.cfi_startproc
# %bb.0:
	pushq	%rbp
	.cfi_def_cfa_offset 16
	pushq	%r15
	.cfi_def_cfa_offset 24
	pushq	%r14
	.cfi_def_cfa_offset 32
	pushq	%r13
	.cfi_def_cfa_offset 40
	pushq	%r12
	.cfi_def_cfa_offset 48
	pushq	%rbx
	.cfi_def_cfa_offset 56
	subq	$24, %rsp
	.cfi_def_cfa_offset 80
	.cfi_offset %rbx, -56
	.cfi_offset %r12, -48
	.cfi_offset %r13, -40
	.cfi_offset %r14, -32
	.cfi_offset %r15, -24
	.cfi_offset %rbp, -16
	movq	%rdi, %r15
	movzwl	4(%rdi), %r13d
	movq	16(%rdi), %rcx
	testq	%rcx, %rcx
	je	.LBB31_1
# %bb.2:
	movzwl	%r13w, %r14d
	movl	$24, %ebp
	xorl	%eax, %eax
	xorl	%ebx, %ebx
	jmp	.LBB31_3
	.p2align	4, 0x90
.LBB31_6:                               #   in Loop: Header=BB31_3 Depth=1
	addq	$1, %rbx
	addq	$32, %rbp
	cmpq	%rcx, %rbx
	jae	.LBB31_7
.LBB31_3:                               # =>This Inner Loop Header: Depth=1
	movq	8(%r15), %rdx
	movzwl	-8(%rdx,%rbp), %esi
	cmpw	%si, %r13w
	jb	.LBB31_6
# %bb.4:                                #   in Loop: Header=BB31_3 Depth=1
	movzwl	-6(%rdx,%rbp), %edi
	addl	%esi, %edi
	cmpl	%r14d, %edi
	jbe	.LBB31_6
# %bb.5:                                #   in Loop: Header=BB31_3 Depth=1
	movq	(%rdx,%rbp), %rdi
	movl	%r13d, %eax
	subl	%esi, %eax
	movzwl	%ax, %esi
	callq	*-24(%rdx,%rbp)
                                        # kill: def $al killed $al def $rax
	movq	16(%r15), %rcx
	jmp	.LBB31_6
.LBB31_7:
	movzwl	4(%r15), %r13d
	jmp	.LBB31_8
.LBB31_1:
	xorl	%ecx, %ecx
	xorl	%eax, %eax
.LBB31_8:
	addb	1(%r15), %al
	addl	$1, %r13d
	movw	%r13w, 4(%r15)
	testq	%rcx, %rcx
	je	.LBB31_9
# %bb.10:
	movzbl	%al, %r12d
	movzwl	%r12w, %r14d
	movl	$24, %ebp
	xorl	%eax, %eax
	xorl	%ebx, %ebx
	jmp	.LBB31_11
	.p2align	4, 0x90
.LBB31_14:                              #   in Loop: Header=BB31_11 Depth=1
	addq	$1, %rbx
	addq	$32, %rbp
	cmpq	%rcx, %rbx
	jae	.LBB31_15
.LBB31_11:                              # =>This Inner Loop Header: Depth=1
	movq	8(%r15), %rdx
	movzwl	-8(%rdx,%rbp), %esi
	cmpw	%r12w, %si
	ja	.LBB31_14
# %bb.12:                               #   in Loop: Header=BB31_11 Depth=1
	movzwl	-6(%rdx,%rbp), %edi
	addl	%esi, %edi
	cmpl	%r14d, %edi
	jbe	.LBB31_14
# %bb.13:                               #   in Loop: Header=BB31_11 Depth=1
	movq	(%rdx,%rbp), %rdi
	movl	%r14d, %eax
	subl	%esi, %eax
	movzwl	%ax, %esi
	callq	*-24(%rdx,%rbp)
                                        # kill: def $al killed $al def $rax
	movq	16(%r15), %rcx
	jmp	.LBB31_14
.LBB31_15:
	movzbl	%al, %r13d
	addl	%r13d, %r13d
	testq	%rcx, %rcx
	je	.LBB31_16
# %bb.17:
	movl	$24, %ebp
	xorl	%ebx, %ebx
	jmp	.LBB31_18
	.p2align	4, 0x90
.LBB31_21:                              #   in Loop: Header=BB31_18 Depth=1
	addq	$1, %rbx
	addq	$32, %rbp
	cmpq	%rcx, %rbx
	jae	.LBB31_22
.LBB31_18:                              # =>This Inner Loop Header: Depth=1
	movq	8(%r15), %rax
	movzwl	-8(%rax,%rbp), %edx
	cmpw	%r12w, %dx
	ja	.LBB31_21
# %bb.19:                               #   in Loop: Header=BB31_18 Depth=1
	movzwl	-6(%rax,%rbp), %esi
	addl	%edx, %esi
	cmpl	%r14d, %esi
	jbe	.LBB31_21
# %bb.20:                               #   in Loop: Header=BB31_18 Depth=1
	movq	(%rax,%rbp), %rdi
	movl	%r14d, %ecx
	subl	%edx, %ecx
	movzwl	%cx, %esi
	movzbl	%r13b, %edx
	callq	*-16(%rax,%rbp)
	movq	16(%r15), %rcx
	jmp	.LBB31_21
.LBB31_9:
	leaq	6(%r15), %rax
	movq	%rax, 16(%rsp)          # 8-byte Spill
	movb	6(%r15), %dl
	andb	$127, %dl
	xorl	%ecx, %ecx
	xorl	%eax, %eax
	jmp	.LBB31_23
.LBB31_16:
	xorl	%ecx, %ecx
.LBB31_22:
	movzwl	%r13w, %eax
	leaq	6(%r15), %rdx
	movq	%rdx, 16(%rsp)          # 8-byte Spill
	movb	6(%r15), %dl
	movl	%edx, %ebx
	andb	$127, %bl
	orb	$-128, %dl
	testb	%r13b, %r13b
	movzbl	%dl, %esi
	movzbl	%bl, %edx
	cmovsl	%esi, %edx
	movzwl	4(%r15), %r13d
.LBB31_23:
	movl	%edx, %ebx
	andb	$-3, %bl
	orb	$2, %dl
	testb	%al, %al
	movzbl	%dl, %edx
	movzbl	%bl, %esi
	cmovel	%edx, %esi
	movl	%esi, %edx
	andb	$-2, %dl
	orb	$1, %sil
	testl	$256, %eax              # imm = 0x100
	movzbl	%dl, %eax
	movzbl	%sil, %edx
	cmovel	%eax, %edx
	movb	%dl, 6(%r15)
	movb	(%r15), %bl
	testq	%rcx, %rcx
	je	.LBB31_24
# %bb.25:
	movb	%bl, 15(%rsp)           # 1-byte Spill
	movzwl	%r13w, %r12d
	movl	$24, %ebp
	xorl	%eax, %eax
	xorl	%ebx, %ebx
	jmp	.LBB31_26
	.p2align	4, 0x90
.LBB31_29:                              #   in Loop: Header=BB31_26 Depth=1
	addq	$1, %rbx
	addq	$32, %rbp
	cmpq	%rcx, %rbx
	jae	.LBB31_30
.LBB31_26:                              # =>This Inner Loop Header: Depth=1
	movq	8(%r15), %rdx
	movzwl	-8(%rdx,%rbp), %esi
	cmpw	%si, %r13w
	jb	.LBB31_29
# %bb.27:                               #   in Loop: Header=BB31_26 Depth=1
	movzwl	-6(%rdx,%rbp), %edi
	addl	%esi, %edi
	cmpl	%r12d, %edi
	jbe	.LBB31_29
# %bb.28:                               #   in Loop: Header=BB31_26 Depth=1
	movq	(%rdx,%rbp), %rdi
	movl	%r13d, %eax
	subl	%esi, %eax
	movzwl	%ax, %esi
	callq	*-24(%rdx,%rbp)
                                        # kill: def $al killed $al def $rax
	movq	16(%r15), %rcx
	jmp	.LBB31_29
.LBB31_30:
	addb	1(%r15), %al
	addw	$1, 4(%r15)
	testq	%rcx, %rcx
	je	.LBB31_31
# %bb.32:
	movzbl	%al, %r13d
	movzwl	%r13w, %r12d
	movl	$24, %ebp
	xorl	%eax, %eax
	xorl	%r14d, %r14d
	movb	15(%rsp), %bl           # 1-byte Reload
	jmp	.LBB31_33
	.p2align	4, 0x90
.LBB31_36:                              #   in Loop: Header=BB31_33 Depth=1
	addq	$1, %r14
	addq	$32, %rbp
	cmpq	%rcx, %r14
	jae	.LBB31_37
.LBB31_33:                              # =>This Inner Loop Header: Depth=1
	movq	8(%r15), %rdx
	movzwl	-8(%rdx,%rbp), %esi
	cmpw	%r13w, %si
	ja	.LBB31_36
# %bb.34:                               #   in Loop: Header=BB31_33 Depth=1
	movzwl	-6(%rdx,%rbp), %edi
	addl	%esi, %edi
	cmpl	%r12d, %edi
	jbe	.LBB31_36
# %bb.35:                               #   in Loop: Header=BB31_33 Depth=1
	movq	(%rdx,%rbp), %rdi
	movl	%r12d, %eax
	subl	%esi, %eax
	movzwl	%ax, %esi
	callq	*-24(%rdx,%rbp)
                                        # kill: def $al killed $al def $rax
	movq	16(%r15), %rcx
	jmp	.LBB31_36
.LBB31_24:
	addl	$1, %r13d
	movw	%r13w, 4(%r15)
	xorl	%eax, %eax
.LBB31_37:
	orb	%bl, %al
	movb	%al, (%r15)
	movb	6(%r15), %cl
	js	.LBB31_38
.LBB31_40:
	andb	$127, %cl
	movq	16(%rsp), %rdx          # 8-byte Reload
	movb	%cl, (%rdx)
	testb	%al, %al
	jne	.LBB31_39
# %bb.41:
	orb	$2, %cl
	jmp	.LBB31_42
.LBB31_31:
	xorl	%eax, %eax
	movb	15(%rsp), %bl           # 1-byte Reload
	orb	%bl, %al
	movb	%al, (%r15)
	movb	6(%r15), %cl
	jns	.LBB31_40
.LBB31_38:
	orb	$-128, %cl
	movq	16(%rsp), %rdx          # 8-byte Reload
	movb	%cl, (%rdx)
.LBB31_39:
	andb	$-3, %cl
.LBB31_42:
	movb	%cl, (%rdx)
	movl	$6, %eax
	addq	$24, %rsp
	.cfi_def_cfa_offset 56
	popq	%rbx
	.cfi_def_cfa_offset 48
	popq	%r12
	.cfi_def_cfa_offset 40
	popq	%r13
	.cfi_def_cfa_offset 32
	popq	%r14
	.cfi_def_cfa_offset 24
	popq	%r15
	.cfi_def_cfa_offset 16
	popq	%rbp
	.cfi_def_cfa_offset 8
	retq
.Lfunc_end31:
	.size	SLO_zpgx, .Lfunc_end31-SLO_zpgx
	.cfi_endproc
                                        # -- End function
	.globl	SLO_abss                # -- Begin function SLO_abss
	.p2align	4, 0x90
	.type	SLO_abss,@function
SLO_abss:                               # @SLO_abss
	.cfi_startproc
# %bb.0:
	pushq	%rbp
	.cfi_def_cfa_offset 16
	pushq	%r15
	.cfi_def_cfa_offset 24
	pushq	%r14
	.cfi_def_cfa_offset 32
	pushq	%r13
	.cfi_def_cfa_offset 40
	pushq	%r12
	.cfi_def_cfa_offset 48
	pushq	%rbx
	.cfi_def_cfa_offset 56
	pushq	%rax
	.cfi_def_cfa_offset 64
	.cfi_offset %rbx, -56
	.cfi_offset %r12, -48
	.cfi_offset %r13, -40
	.cfi_offset %r14, -32
	.cfi_offset %r15, -24
	.cfi_offset %rbp, -16
	movq	%rdi, %r15
	movzwl	4(%rdi), %r13d
	movq	16(%rdi), %rcx
	testq	%rcx, %rcx
	je	.LBB32_12
# %bb.1:
	movzwl	%r13w, %r14d
	movl	$24, %ebx
	xorl	%eax, %eax
	xorl	%ebp, %ebp
	jmp	.LBB32_3
	.p2align	4, 0x90
.LBB32_2:                               #   in Loop: Header=BB32_3 Depth=1
	addq	$1, %rbp
	addq	$32, %rbx
	cmpq	%rcx, %rbp
	jae	.LBB32_6
.LBB32_3:                               # =>This Inner Loop Header: Depth=1
	movq	8(%r15), %rdx
	movzwl	-8(%rdx,%rbx), %esi
	cmpw	%si, %r13w
	jb	.LBB32_2
# %bb.4:                                #   in Loop: Header=BB32_3 Depth=1
	movzwl	-6(%rdx,%rbx), %edi
	addl	%esi, %edi
	cmpl	%r14d, %edi
	jbe	.LBB32_2
# %bb.5:                                #   in Loop: Header=BB32_3 Depth=1
	movq	(%rdx,%rbx), %rdi
	movl	%r13d, %eax
	subl	%esi, %eax
	movzwl	%ax, %esi
	callq	*-24(%rdx,%rbx)
                                        # kill: def $al killed $al def $rax
	movq	16(%r15), %rcx
	jmp	.LBB32_2
.LBB32_6:
	movl	4(%r15), %r13d
	testq	%rcx, %rcx
	je	.LBB32_12
# %bb.7:
	movzbl	%al, %r14d
	addl	$1, %r13d
	movzwl	%r13w, %r12d
	movl	$24, %ebx
	xorl	%eax, %eax
	xorl	%ebp, %ebp
	jmp	.LBB32_9
	.p2align	4, 0x90
.LBB32_8:                               #   in Loop: Header=BB32_9 Depth=1
	addq	$1, %rbp
	addq	$32, %rbx
	cmpq	%rcx, %rbp
	jae	.LBB32_14
.LBB32_9:                               # =>This Inner Loop Header: Depth=1
	movq	8(%r15), %rdx
	movzwl	-8(%rdx,%rbx), %esi
	cmpw	%si, %r13w
	jb	.LBB32_8
# %bb.10:                               #   in Loop: Header=BB32_9 Depth=1
	movzwl	-6(%rdx,%rbx), %edi
	addl	%esi, %edi
	cmpl	%r12d, %edi
	jbe	.LBB32_8
# %bb.11:                               #   in Loop: Header=BB32_9 Depth=1
	movq	(%rdx,%rbx), %rdi
	movl	%r13d, %eax
	subl	%esi, %eax
	movzwl	%ax, %esi
	callq	*-24(%rdx,%rbx)
                                        # kill: def $al killed $al def $rax
	movq	16(%r15), %rcx
	jmp	.LBB32_8
.LBB32_12:
	addl	$2, %r13d
	movw	%r13w, 4(%r15)
.LBB32_13:
	leaq	6(%r15), %r14
	movb	6(%r15), %dl
	andb	$127, %dl
	xorl	%ecx, %ecx
	xorl	%eax, %eax
	jmp	.LBB32_28
.LBB32_14:
	movl	4(%r15), %r13d
	addl	$2, %r13d
	movw	%r13w, 4(%r15)
	testq	%rcx, %rcx
	je	.LBB32_13
# %bb.15:
	movzbl	%al, %eax
	shll	$8, %eax
	movzwl	%r14w, %r13d
	orl	%eax, %r13d
	movzwl	%r13w, %r14d
	movl	$24, %ebx
	xorl	%eax, %eax
	xorl	%ebp, %ebp
	jmp	.LBB32_17
	.p2align	4, 0x90
.LBB32_16:                              #   in Loop: Header=BB32_17 Depth=1
	addq	$1, %rbp
	addq	$32, %rbx
	cmpq	%rcx, %rbp
	jae	.LBB32_20
.LBB32_17:                              # =>This Inner Loop Header: Depth=1
	movq	8(%r15), %rdx
	movzwl	-8(%rdx,%rbx), %esi
	cmpw	%si, %r13w
	jb	.LBB32_16
# %bb.18:                               #   in Loop: Header=BB32_17 Depth=1
	movzwl	-6(%rdx,%rbx), %edi
	addl	%esi, %edi
	cmpl	%r14d, %edi
	jbe	.LBB32_16
# %bb.19:                               #   in Loop: Header=BB32_17 Depth=1
	movq	(%rdx,%rbx), %rdi
	movl	%r13d, %eax
	subl	%esi, %eax
	movzwl	%ax, %esi
	callq	*-24(%rdx,%rbx)
                                        # kill: def $al killed $al def $rax
	movq	16(%r15), %rcx
	jmp	.LBB32_16
.LBB32_20:
	movzbl	%al, %r12d
	addl	%r12d, %r12d
	testq	%rcx, %rcx
	je	.LBB32_26
# %bb.21:
	movl	$24, %ebx
	xorl	%ebp, %ebp
	jmp	.LBB32_23
	.p2align	4, 0x90
.LBB32_22:                              #   in Loop: Header=BB32_23 Depth=1
	addq	$1, %rbp
	addq	$32, %rbx
	cmpq	%rcx, %rbp
	jae	.LBB32_27
.LBB32_23:                              # =>This Inner Loop Header: Depth=1
	movq	8(%r15), %rax
	movzwl	-8(%rax,%rbx), %edx
	cmpw	%dx, %r13w
	jb	.LBB32_22
# %bb.24:                               #   in Loop: Header=BB32_23 Depth=1
	movzwl	-6(%rax,%rbx), %esi
	addl	%edx, %esi
	cmpl	%r14d, %esi
	jbe	.LBB32_22
# %bb.25:                               #   in Loop: Header=BB32_23 Depth=1
	movq	(%rax,%rbx), %rdi
	movl	%r13d, %ecx
	subl	%edx, %ecx
	movzwl	%cx, %esi
	movzbl	%r12b, %edx
	callq	*-16(%rax,%rbx)
	movq	16(%r15), %rcx
	jmp	.LBB32_22
.LBB32_26:
	xorl	%ecx, %ecx
.LBB32_27:
	movzwl	%r12w, %eax
	leaq	6(%r15), %r14
	movb	6(%r15), %dl
	movl	%edx, %ebx
	andb	$127, %bl
	orb	$-128, %dl
	testb	%r12b, %r12b
	movzbl	%dl, %esi
	movzbl	%bl, %edx
	cmovsl	%esi, %edx
	movzwl	4(%r15), %r13d
.LBB32_28:
	movl	%edx, %ebx
	andb	$-3, %bl
	orb	$2, %dl
	testb	%al, %al
	movzbl	%dl, %edx
	movzbl	%bl, %esi
	cmovel	%edx, %esi
	movl	%esi, %edx
	andb	$-2, %dl
	orb	$1, %sil
	testl	$256, %eax              # imm = 0x100
	movzbl	%dl, %eax
	movzbl	%sil, %edx
	cmovel	%eax, %edx
	movb	%dl, 6(%r15)
	movb	(%r15), %al
	testq	%rcx, %rcx
	movb	%al, 3(%rsp)            # 1-byte Spill
	je	.LBB32_40
# %bb.29:
	movzwl	%r13w, %r12d
	movl	$24, %ebx
	xorl	%eax, %eax
	xorl	%ebp, %ebp
	jmp	.LBB32_31
	.p2align	4, 0x90
.LBB32_30:                              #   in Loop: Header=BB32_31 Depth=1
	addq	$1, %rbp
	addq	$32, %rbx
	cmpq	%rcx, %rbp
	jae	.LBB32_34
.LBB32_31:                              # =>This Inner Loop Header: Depth=1
	movq	8(%r15), %rdx
	movzwl	-8(%rdx,%rbx), %esi
	cmpw	%si, %r13w
	jb	.LBB32_30
# %bb.32:                               #   in Loop: Header=BB32_31 Depth=1
	movzwl	-6(%rdx,%rbx), %edi
	addl	%esi, %edi
	cmpl	%r12d, %edi
	jbe	.LBB32_30
# %bb.33:                               #   in Loop: Header=BB32_31 Depth=1
	movq	(%rdx,%rbx), %rdi
	movl	%r13d, %eax
	subl	%esi, %eax
	movzwl	%ax, %esi
	callq	*-24(%rdx,%rbx)
                                        # kill: def $al killed $al def $rax
	movq	16(%r15), %rcx
	jmp	.LBB32_30
.LBB32_34:
	movl	4(%r15), %r13d
	testq	%rcx, %rcx
	je	.LBB32_40
# %bb.35:
	movzbl	%al, %eax
	movl	%eax, 4(%rsp)           # 4-byte Spill
	addl	$1, %r13d
	movzwl	%r13w, %ebp
	movl	$24, %ebx
	xorl	%eax, %eax
	xorl	%r12d, %r12d
	jmp	.LBB32_37
	.p2align	4, 0x90
.LBB32_36:                              #   in Loop: Header=BB32_37 Depth=1
	addq	$1, %r12
	addq	$32, %rbx
	cmpq	%rcx, %r12
	jae	.LBB32_45
.LBB32_37:                              # =>This Inner Loop Header: Depth=1
	movq	8(%r15), %rdx
	movzwl	-8(%rdx,%rbx), %esi
	cmpw	%si, %r13w
	jb	.LBB32_36
# %bb.38:                               #   in Loop: Header=BB32_37 Depth=1
	movzwl	-6(%rdx,%rbx), %edi
	addl	%esi, %edi
	cmpl	%ebp, %edi
	jbe	.LBB32_36
# %bb.39:                               #   in Loop: Header=BB32_37 Depth=1
	movq	(%rdx,%rbx), %rdi
	movl	%r13d, %eax
	subl	%esi, %eax
	movzwl	%ax, %esi
	callq	*-24(%rdx,%rbx)
                                        # kill: def $al killed $al def $rax
	movq	16(%r15), %rcx
	jmp	.LBB32_36
.LBB32_40:
	addl	$2, %r13d
	movw	%r13w, 4(%r15)
.LBB32_41:
	xorl	%eax, %eax
.LBB32_42:
	orb	3(%rsp), %al            # 1-byte Folded Reload
	movb	%al, (%r15)
	movb	6(%r15), %cl
	js	.LBB32_51
# %bb.43:
	andb	$127, %cl
	movb	%cl, (%r14)
	testb	%al, %al
	jne	.LBB32_52
# %bb.44:
	orb	$2, %cl
	jmp	.LBB32_53
.LBB32_45:
	addw	$2, 4(%r15)
	testq	%rcx, %rcx
	je	.LBB32_41
# %bb.46:
	movzbl	%al, %eax
	shll	$8, %eax
	movzwl	4(%rsp), %r13d          # 2-byte Folded Reload
	orl	%eax, %r13d
	movzwl	%r13w, %r12d
	movl	$24, %ebp
	xorl	%eax, %eax
	xorl	%ebx, %ebx
	jmp	.LBB32_48
	.p2align	4, 0x90
.LBB32_47:                              #   in Loop: Header=BB32_48 Depth=1
	addq	$1, %rbx
	addq	$32, %rbp
	cmpq	%rcx, %rbx
	jae	.LBB32_42
.LBB32_48:                              # =>This Inner Loop Header: Depth=1
	movq	8(%r15), %rdx
	movzwl	-8(%rdx,%rbp), %esi
	cmpw	%si, %r13w
	jb	.LBB32_47
# %bb.49:                               #   in Loop: Header=BB32_48 Depth=1
	movzwl	-6(%rdx,%rbp), %edi
	addl	%esi, %edi
	cmpl	%r12d, %edi
	jbe	.LBB32_47
# %bb.50:                               #   in Loop: Header=BB32_48 Depth=1
	movq	(%rdx,%rbp), %rdi
	movl	%r13d, %eax
	subl	%esi, %eax
	movzwl	%ax, %esi
	callq	*-24(%rdx,%rbp)
                                        # kill: def $al killed $al def $rax
	movq	16(%r15), %rcx
	jmp	.LBB32_47
.LBB32_51:
	orb	$-128, %cl
	movb	%cl, (%r14)
.LBB32_52:
	andb	$-3, %cl
.LBB32_53:
	movb	%cl, (%r14)
	movl	$6, %eax
	addq	$8, %rsp
	.cfi_def_cfa_offset 56
	popq	%rbx
	.cfi_def_cfa_offset 48
	popq	%r12
	.cfi_def_cfa_offset 40
	popq	%r13
	.cfi_def_cfa_offset 32
	popq	%r14
	.cfi_def_cfa_offset 24
	popq	%r15
	.cfi_def_cfa_offset 16
	popq	%rbp
	.cfi_def_cfa_offset 8
	retq
.Lfunc_end32:
	.size	SLO_abss, .Lfunc_end32-SLO_abss
	.cfi_endproc
                                        # -- End function
	.globl	SLO_absx                # -- Begin function SLO_absx
	.p2align	4, 0x90
	.type	SLO_absx,@function
SLO_absx:                               # @SLO_absx
	.cfi_startproc
# %bb.0:
	pushq	%rbp
	.cfi_def_cfa_offset 16
	pushq	%r15
	.cfi_def_cfa_offset 24
	pushq	%r14
	.cfi_def_cfa_offset 32
	pushq	%r13
	.cfi_def_cfa_offset 40
	pushq	%r12
	.cfi_def_cfa_offset 48
	pushq	%rbx
	.cfi_def_cfa_offset 56
	subq	$24, %rsp
	.cfi_def_cfa_offset 80
	.cfi_offset %rbx, -56
	.cfi_offset %r12, -48
	.cfi_offset %r13, -40
	.cfi_offset %r14, -32
	.cfi_offset %r15, -24
	.cfi_offset %rbp, -16
	movq	%rdi, %r15
	movzwl	4(%rdi), %r13d
	movq	16(%rdi), %rcx
	testq	%rcx, %rcx
	je	.LBB33_13
# %bb.1:
	movzwl	%r13w, %r14d
	movl	$24, %ebx
	xorl	%eax, %eax
	xorl	%ebp, %ebp
	jmp	.LBB33_3
	.p2align	4, 0x90
.LBB33_2:                               #   in Loop: Header=BB33_3 Depth=1
	addq	$1, %rbp
	addq	$32, %rbx
	cmpq	%rcx, %rbp
	jae	.LBB33_6
.LBB33_3:                               # =>This Inner Loop Header: Depth=1
	movq	8(%r15), %rdx
	movzwl	-8(%rdx,%rbx), %esi
	cmpw	%si, %r13w
	jb	.LBB33_2
# %bb.4:                                #   in Loop: Header=BB33_3 Depth=1
	movzwl	-6(%rdx,%rbx), %edi
	addl	%esi, %edi
	cmpl	%r14d, %edi
	jbe	.LBB33_2
# %bb.5:                                #   in Loop: Header=BB33_3 Depth=1
	movq	(%rdx,%rbx), %rdi
	movl	%r13d, %eax
	subl	%esi, %eax
	movzwl	%ax, %esi
	callq	*-24(%rdx,%rbx)
                                        # kill: def $al killed $al def $rax
	movq	16(%r15), %rcx
	jmp	.LBB33_2
.LBB33_6:
	movzbl	%al, %r14d
	movl	4(%r15), %r13d
	testq	%rcx, %rcx
	je	.LBB33_14
# %bb.7:
	addl	$1, %r13d
	movzwl	%r13w, %r12d
	movl	$24, %ebx
	xorl	%eax, %eax
	xorl	%ebp, %ebp
	jmp	.LBB33_9
	.p2align	4, 0x90
.LBB33_8:                               #   in Loop: Header=BB33_9 Depth=1
	addq	$1, %rbp
	addq	$32, %rbx
	cmpq	%rcx, %rbp
	jae	.LBB33_12
.LBB33_9:                               # =>This Inner Loop Header: Depth=1
	movq	8(%r15), %rdx
	movzwl	-8(%rdx,%rbx), %esi
	cmpw	%si, %r13w
	jb	.LBB33_8
# %bb.10:                               #   in Loop: Header=BB33_9 Depth=1
	movzwl	-6(%rdx,%rbx), %edi
	addl	%esi, %edi
	cmpl	%r12d, %edi
	jbe	.LBB33_8
# %bb.11:                               #   in Loop: Header=BB33_9 Depth=1
	movq	(%rdx,%rbx), %rdi
	movl	%r13d, %eax
	subl	%esi, %eax
	movzwl	%ax, %esi
	callq	*-24(%rdx,%rbx)
                                        # kill: def $al killed $al def $rax
	movq	16(%r15), %rcx
	jmp	.LBB33_8
.LBB33_12:
	movzwl	4(%r15), %r13d
	jmp	.LBB33_16
.LBB33_13:
	xorl	%ecx, %ecx
	xorl	%r14d, %r14d
	jmp	.LBB33_15
.LBB33_14:
	xorl	%ecx, %ecx
.LBB33_15:
	xorl	%eax, %eax
.LBB33_16:
	movzbl	1(%r15), %edx
	addl	$2, %r13d
	movw	%r13w, 4(%r15)
	testq	%rcx, %rcx
	je	.LBB33_28
# %bb.17:
	movzbl	%al, %eax
	shll	$8, %eax
	movzwl	%r14w, %r13d
	orl	%eax, %r13d
	addl	%edx, %r13d
	movzwl	%r13w, %r14d
	movl	$24, %ebx
	xorl	%eax, %eax
	xorl	%ebp, %ebp
	jmp	.LBB33_19
	.p2align	4, 0x90
.LBB33_18:                              #   in Loop: Header=BB33_19 Depth=1
	addq	$1, %rbp
	addq	$32, %rbx
	cmpq	%rcx, %rbp
	jae	.LBB33_22
.LBB33_19:                              # =>This Inner Loop Header: Depth=1
	movq	8(%r15), %rdx
	movzwl	-8(%rdx,%rbx), %esi
	cmpw	%si, %r13w
	jb	.LBB33_18
# %bb.20:                               #   in Loop: Header=BB33_19 Depth=1
	movzwl	-6(%rdx,%rbx), %edi
	addl	%esi, %edi
	cmpl	%r14d, %edi
	jbe	.LBB33_18
# %bb.21:                               #   in Loop: Header=BB33_19 Depth=1
	movq	(%rdx,%rbx), %rdi
	movl	%r13d, %eax
	subl	%esi, %eax
	movzwl	%ax, %esi
	callq	*-24(%rdx,%rbx)
                                        # kill: def $al killed $al def $rax
	movq	16(%r15), %rcx
	jmp	.LBB33_18
.LBB33_22:
	movzbl	%al, %r12d
	addl	%r12d, %r12d
	testq	%rcx, %rcx
	je	.LBB33_29
# %bb.23:
	movl	$24, %ebx
	xorl	%ebp, %ebp
	jmp	.LBB33_25
	.p2align	4, 0x90
.LBB33_24:                              #   in Loop: Header=BB33_25 Depth=1
	addq	$1, %rbp
	addq	$32, %rbx
	cmpq	%rcx, %rbp
	jae	.LBB33_30
.LBB33_25:                              # =>This Inner Loop Header: Depth=1
	movq	8(%r15), %rax
	movzwl	-8(%rax,%rbx), %edx
	cmpw	%dx, %r13w
	jb	.LBB33_24
# %bb.26:                               #   in Loop: Header=BB33_25 Depth=1
	movzwl	-6(%rax,%rbx), %esi
	addl	%edx, %esi
	cmpl	%r14d, %esi
	jbe	.LBB33_24
# %bb.27:                               #   in Loop: Header=BB33_25 Depth=1
	movq	(%rax,%rbx), %rdi
	movl	%r13d, %ecx
	subl	%edx, %ecx
	movzwl	%cx, %esi
	movzbl	%r12b, %edx
	callq	*-16(%rax,%rbx)
	movq	16(%r15), %rcx
	jmp	.LBB33_24
.LBB33_28:
	leaq	6(%r15), %r14
	movb	6(%r15), %dl
	andb	$127, %dl
	xorl	%ecx, %ecx
	xorl	%eax, %eax
	jmp	.LBB33_31
.LBB33_29:
	xorl	%ecx, %ecx
.LBB33_30:
	movzwl	%r12w, %eax
	leaq	6(%r15), %r14
	movb	6(%r15), %dl
	movl	%edx, %ebx
	andb	$127, %bl
	orb	$-128, %dl
	testb	%r12b, %r12b
	movzbl	%dl, %esi
	movzbl	%bl, %edx
	cmovsl	%esi, %edx
	movzwl	4(%r15), %r13d
.LBB33_31:
	movl	%edx, %ebx
	andb	$-3, %bl
	orb	$2, %dl
	testb	%al, %al
	movzbl	%dl, %edx
	movzbl	%bl, %esi
	cmovel	%edx, %esi
	movl	%esi, %edx
	andb	$-2, %dl
	orb	$1, %sil
	testl	$256, %eax              # imm = 0x100
	movzbl	%dl, %eax
	movzbl	%sil, %edx
	cmovel	%eax, %edx
	movb	%dl, 6(%r15)
	movb	(%r15), %al
	testq	%rcx, %rcx
	movb	%al, 15(%rsp)           # 1-byte Spill
	je	.LBB33_44
# %bb.32:
	movzwl	%r13w, %r12d
	movl	$24, %ebx
	xorl	%eax, %eax
	xorl	%ebp, %ebp
	jmp	.LBB33_34
	.p2align	4, 0x90
.LBB33_33:                              #   in Loop: Header=BB33_34 Depth=1
	addq	$1, %rbp
	addq	$32, %rbx
	cmpq	%rcx, %rbp
	jae	.LBB33_37
.LBB33_34:                              # =>This Inner Loop Header: Depth=1
	movq	8(%r15), %rdx
	movzwl	-8(%rdx,%rbx), %esi
	cmpw	%si, %r13w
	jb	.LBB33_33
# %bb.35:                               #   in Loop: Header=BB33_34 Depth=1
	movzwl	-6(%rdx,%rbx), %edi
	addl	%esi, %edi
	cmpl	%r12d, %edi
	jbe	.LBB33_33
# %bb.36:                               #   in Loop: Header=BB33_34 Depth=1
	movq	(%rdx,%rbx), %rdi
	movl	%r13d, %eax
	subl	%esi, %eax
	movzwl	%ax, %esi
	callq	*-24(%rdx,%rbx)
                                        # kill: def $al killed $al def $rax
	movq	16(%r15), %rcx
	jmp	.LBB33_33
.LBB33_37:
	movzbl	%al, %r12d
	movl	4(%r15), %r13d
	testq	%rcx, %rcx
	je	.LBB33_45
# %bb.38:
	movq	%r14, 16(%rsp)          # 8-byte Spill
	addl	$1, %r13d
	movzwl	%r13w, %ebp
	movl	$24, %ebx
	xorl	%eax, %eax
	xorl	%r14d, %r14d
	jmp	.LBB33_40
	.p2align	4, 0x90
.LBB33_39:                              #   in Loop: Header=BB33_40 Depth=1
	addq	$1, %r14
	addq	$32, %rbx
	cmpq	%rcx, %r14
	jae	.LBB33_43
.LBB33_40:                              # =>This Inner Loop Header: Depth=1
	movq	8(%r15), %rdx
	movzwl	-8(%rdx,%rbx), %esi
	cmpw	%si, %r13w
	jb	.LBB33_39
# %bb.41:                               #   in Loop: Header=BB33_40 Depth=1
	movzwl	-6(%rdx,%rbx), %edi
	addl	%esi, %edi
	cmpl	%ebp, %edi
	jbe	.LBB33_39
# %bb.42:                               #   in Loop: Header=BB33_40 Depth=1
	movq	(%rdx,%rbx), %rdi
	movl	%r13d, %eax
	subl	%esi, %eax
	movzwl	%ax, %esi
	callq	*-24(%rdx,%rbx)
                                        # kill: def $al killed $al def $rax
	movq	16(%r15), %rcx
	jmp	.LBB33_39
.LBB33_43:
	movzwl	4(%r15), %r13d
	movq	16(%rsp), %r14          # 8-byte Reload
	jmp	.LBB33_47
.LBB33_44:
	xorl	%ecx, %ecx
	xorl	%r12d, %r12d
	jmp	.LBB33_46
.LBB33_45:
	xorl	%ecx, %ecx
.LBB33_46:
	xorl	%eax, %eax
.LBB33_47:
	movzbl	1(%r15), %edx
	addl	$2, %r13d
	movw	%r13w, 4(%r15)
	testq	%rcx, %rcx
	je	.LBB33_53
# %bb.48:
	movzbl	%al, %eax
	shll	$8, %eax
	movzwl	%r12w, %r13d
	orl	%eax, %r13d
	addl	%edx, %r13d
	movzwl	%r13w, %r12d
	movl	$24, %ebx
	xorl	%eax, %eax
	xorl	%ebp, %ebp
	jmp	.LBB33_50
	.p2align	4, 0x90
.LBB33_49:                              #   in Loop: Header=BB33_50 Depth=1
	addq	$1, %rbp
	addq	$32, %rbx
	cmpq	%rcx, %rbp
	jae	.LBB33_54
.LBB33_50:                              # =>This Inner Loop Header: Depth=1
	movq	8(%r15), %rdx
	movzwl	-8(%rdx,%rbx), %esi
	cmpw	%si, %r13w
	jb	.LBB33_49
# %bb.51:                               #   in Loop: Header=BB33_50 Depth=1
	movzwl	-6(%rdx,%rbx), %edi
	addl	%esi, %edi
	cmpl	%r12d, %edi
	jbe	.LBB33_49
# %bb.52:                               #   in Loop: Header=BB33_50 Depth=1
	movq	(%rdx,%rbx), %rdi
	movl	%r13d, %eax
	subl	%esi, %eax
	movzwl	%ax, %esi
	callq	*-24(%rdx,%rbx)
                                        # kill: def $al killed $al def $rax
	movq	16(%r15), %rcx
	jmp	.LBB33_49
.LBB33_53:
	xorl	%eax, %eax
.LBB33_54:
	orb	15(%rsp), %al           # 1-byte Folded Reload
	movb	%al, (%r15)
	movb	6(%r15), %cl
	js	.LBB33_57
# %bb.55:
	andb	$127, %cl
	movb	%cl, (%r14)
	testb	%al, %al
	jne	.LBB33_58
# %bb.56:
	orb	$2, %cl
	jmp	.LBB33_59
.LBB33_57:
	orb	$-128, %cl
	movb	%cl, (%r14)
.LBB33_58:
	andb	$-3, %cl
.LBB33_59:
	movb	%cl, (%r14)
	movl	$7, %eax
	addq	$24, %rsp
	.cfi_def_cfa_offset 56
	popq	%rbx
	.cfi_def_cfa_offset 48
	popq	%r12
	.cfi_def_cfa_offset 40
	popq	%r13
	.cfi_def_cfa_offset 32
	popq	%r14
	.cfi_def_cfa_offset 24
	popq	%r15
	.cfi_def_cfa_offset 16
	popq	%rbp
	.cfi_def_cfa_offset 8
	retq
.Lfunc_end33:
	.size	SLO_absx, .Lfunc_end33-SLO_absx
	.cfi_endproc
                                        # -- End function
	.globl	SLO_absy                # -- Begin function SLO_absy
	.p2align	4, 0x90
	.type	SLO_absy,@function
SLO_absy:                               # @SLO_absy
	.cfi_startproc
# %bb.0:
	pushq	%rbp
	.cfi_def_cfa_offset 16
	pushq	%r15
	.cfi_def_cfa_offset 24
	pushq	%r14
	.cfi_def_cfa_offset 32
	pushq	%r13
	.cfi_def_cfa_offset 40
	pushq	%r12
	.cfi_def_cfa_offset 48
	pushq	%rbx
	.cfi_def_cfa_offset 56
	subq	$24, %rsp
	.cfi_def_cfa_offset 80
	.cfi_offset %rbx, -56
	.cfi_offset %r12, -48
	.cfi_offset %r13, -40
	.cfi_offset %r14, -32
	.cfi_offset %r15, -24
	.cfi_offset %rbp, -16
	movq	%rdi, %r15
	movzwl	4(%rdi), %r13d
	movq	16(%rdi), %rcx
	testq	%rcx, %rcx
	je	.LBB34_13
# %bb.1:
	movzwl	%r13w, %r14d
	movl	$24, %ebx
	xorl	%eax, %eax
	xorl	%ebp, %ebp
	jmp	.LBB34_3
	.p2align	4, 0x90
.LBB34_2:                               #   in Loop: Header=BB34_3 Depth=1
	addq	$1, %rbp
	addq	$32, %rbx
	cmpq	%rcx, %rbp
	jae	.LBB34_6
.LBB34_3:                               # =>This Inner Loop Header: Depth=1
	movq	8(%r15), %rdx
	movzwl	-8(%rdx,%rbx), %esi
	cmpw	%si, %r13w
	jb	.LBB34_2
# %bb.4:                                #   in Loop: Header=BB34_3 Depth=1
	movzwl	-6(%rdx,%rbx), %edi
	addl	%esi, %edi
	cmpl	%r14d, %edi
	jbe	.LBB34_2
# %bb.5:                                #   in Loop: Header=BB34_3 Depth=1
	movq	(%rdx,%rbx), %rdi
	movl	%r13d, %eax
	subl	%esi, %eax
	movzwl	%ax, %esi
	callq	*-24(%rdx,%rbx)
                                        # kill: def $al killed $al def $rax
	movq	16(%r15), %rcx
	jmp	.LBB34_2
.LBB34_6:
	movzbl	%al, %r14d
	movl	4(%r15), %r13d
	testq	%rcx, %rcx
	je	.LBB34_14
# %bb.7:
	addl	$1, %r13d
	movzwl	%r13w, %r12d
	movl	$24, %ebx
	xorl	%eax, %eax
	xorl	%ebp, %ebp
	jmp	.LBB34_9
	.p2align	4, 0x90
.LBB34_8:                               #   in Loop: Header=BB34_9 Depth=1
	addq	$1, %rbp
	addq	$32, %rbx
	cmpq	%rcx, %rbp
	jae	.LBB34_12
.LBB34_9:                               # =>This Inner Loop Header: Depth=1
	movq	8(%r15), %rdx
	movzwl	-8(%rdx,%rbx), %esi
	cmpw	%si, %r13w
	jb	.LBB34_8
# %bb.10:                               #   in Loop: Header=BB34_9 Depth=1
	movzwl	-6(%rdx,%rbx), %edi
	addl	%esi, %edi
	cmpl	%r12d, %edi
	jbe	.LBB34_8
# %bb.11:                               #   in Loop: Header=BB34_9 Depth=1
	movq	(%rdx,%rbx), %rdi
	movl	%r13d, %eax
	subl	%esi, %eax
	movzwl	%ax, %esi
	callq	*-24(%rdx,%rbx)
                                        # kill: def $al killed $al def $rax
	movq	16(%r15), %rcx
	jmp	.LBB34_8
.LBB34_12:
	movzwl	4(%r15), %r13d
	jmp	.LBB34_16
.LBB34_13:
	xorl	%ecx, %ecx
	xorl	%r14d, %r14d
	jmp	.LBB34_15
.LBB34_14:
	xorl	%ecx, %ecx
.LBB34_15:
	xorl	%eax, %eax
.LBB34_16:
	movzbl	2(%r15), %edx
	addl	$2, %r13d
	movw	%r13w, 4(%r15)
	testq	%rcx, %rcx
	je	.LBB34_28
# %bb.17:
	movzbl	%al, %eax
	shll	$8, %eax
	movzwl	%r14w, %r13d
	orl	%eax, %r13d
	addl	%edx, %r13d
	movzwl	%r13w, %r14d
	movl	$24, %ebx
	xorl	%eax, %eax
	xorl	%ebp, %ebp
	jmp	.LBB34_19
	.p2align	4, 0x90
.LBB34_18:                              #   in Loop: Header=BB34_19 Depth=1
	addq	$1, %rbp
	addq	$32, %rbx
	cmpq	%rcx, %rbp
	jae	.LBB34_22
.LBB34_19:                              # =>This Inner Loop Header: Depth=1
	movq	8(%r15), %rdx
	movzwl	-8(%rdx,%rbx), %esi
	cmpw	%si, %r13w
	jb	.LBB34_18
# %bb.20:                               #   in Loop: Header=BB34_19 Depth=1
	movzwl	-6(%rdx,%rbx), %edi
	addl	%esi, %edi
	cmpl	%r14d, %edi
	jbe	.LBB34_18
# %bb.21:                               #   in Loop: Header=BB34_19 Depth=1
	movq	(%rdx,%rbx), %rdi
	movl	%r13d, %eax
	subl	%esi, %eax
	movzwl	%ax, %esi
	callq	*-24(%rdx,%rbx)
                                        # kill: def $al killed $al def $rax
	movq	16(%r15), %rcx
	jmp	.LBB34_18
.LBB34_22:
	movzbl	%al, %r12d
	addl	%r12d, %r12d
	testq	%rcx, %rcx
	je	.LBB34_29
# %bb.23:
	movl	$24, %ebx
	xorl	%ebp, %ebp
	jmp	.LBB34_25
	.p2align	4, 0x90
.LBB34_24:                              #   in Loop: Header=BB34_25 Depth=1
	addq	$1, %rbp
	addq	$32, %rbx
	cmpq	%rcx, %rbp
	jae	.LBB34_30
.LBB34_25:                              # =>This Inner Loop Header: Depth=1
	movq	8(%r15), %rax
	movzwl	-8(%rax,%rbx), %edx
	cmpw	%dx, %r13w
	jb	.LBB34_24
# %bb.26:                               #   in Loop: Header=BB34_25 Depth=1
	movzwl	-6(%rax,%rbx), %esi
	addl	%edx, %esi
	cmpl	%r14d, %esi
	jbe	.LBB34_24
# %bb.27:                               #   in Loop: Header=BB34_25 Depth=1
	movq	(%rax,%rbx), %rdi
	movl	%r13d, %ecx
	subl	%edx, %ecx
	movzwl	%cx, %esi
	movzbl	%r12b, %edx
	callq	*-16(%rax,%rbx)
	movq	16(%r15), %rcx
	jmp	.LBB34_24
.LBB34_28:
	leaq	6(%r15), %r14
	movb	6(%r15), %dl
	andb	$127, %dl
	xorl	%ecx, %ecx
	xorl	%eax, %eax
	jmp	.LBB34_31
.LBB34_29:
	xorl	%ecx, %ecx
.LBB34_30:
	movzwl	%r12w, %eax
	leaq	6(%r15), %r14
	movb	6(%r15), %dl
	movl	%edx, %ebx
	andb	$127, %bl
	orb	$-128, %dl
	testb	%r12b, %r12b
	movzbl	%dl, %esi
	movzbl	%bl, %edx
	cmovsl	%esi, %edx
	movzwl	4(%r15), %r13d
.LBB34_31:
	movl	%edx, %ebx
	andb	$-3, %bl
	orb	$2, %dl
	testb	%al, %al
	movzbl	%dl, %edx
	movzbl	%bl, %esi
	cmovel	%edx, %esi
	movl	%esi, %edx
	andb	$-2, %dl
	orb	$1, %sil
	testl	$256, %eax              # imm = 0x100
	movzbl	%dl, %eax
	movzbl	%sil, %edx
	cmovel	%eax, %edx
	movb	%dl, 6(%r15)
	movb	(%r15), %al
	testq	%rcx, %rcx
	movb	%al, 15(%rsp)           # 1-byte Spill
	je	.LBB34_44
# %bb.32:
	movzwl	%r13w, %r12d
	movl	$24, %ebx
	xorl	%eax, %eax
	xorl	%ebp, %ebp
	jmp	.LBB34_34
	.p2align	4, 0x90
.LBB34_33:                              #   in Loop: Header=BB34_34 Depth=1
	addq	$1, %rbp
	addq	$32, %rbx
	cmpq	%rcx, %rbp
	jae	.LBB34_37
.LBB34_34:                              # =>This Inner Loop Header: Depth=1
	movq	8(%r15), %rdx
	movzwl	-8(%rdx,%rbx), %esi
	cmpw	%si, %r13w
	jb	.LBB34_33
# %bb.35:                               #   in Loop: Header=BB34_34 Depth=1
	movzwl	-6(%rdx,%rbx), %edi
	addl	%esi, %edi
	cmpl	%r12d, %edi
	jbe	.LBB34_33
# %bb.36:                               #   in Loop: Header=BB34_34 Depth=1
	movq	(%rdx,%rbx), %rdi
	movl	%r13d, %eax
	subl	%esi, %eax
	movzwl	%ax, %esi
	callq	*-24(%rdx,%rbx)
                                        # kill: def $al killed $al def $rax
	movq	16(%r15), %rcx
	jmp	.LBB34_33
.LBB34_37:
	movzbl	%al, %r12d
	movl	4(%r15), %r13d
	testq	%rcx, %rcx
	je	.LBB34_45
# %bb.38:
	movq	%r14, 16(%rsp)          # 8-byte Spill
	addl	$1, %r13d
	movzwl	%r13w, %ebp
	movl	$24, %ebx
	xorl	%eax, %eax
	xorl	%r14d, %r14d
	jmp	.LBB34_40
	.p2align	4, 0x90
.LBB34_39:                              #   in Loop: Header=BB34_40 Depth=1
	addq	$1, %r14
	addq	$32, %rbx
	cmpq	%rcx, %r14
	jae	.LBB34_43
.LBB34_40:                              # =>This Inner Loop Header: Depth=1
	movq	8(%r15), %rdx
	movzwl	-8(%rdx,%rbx), %esi
	cmpw	%si, %r13w
	jb	.LBB34_39
# %bb.41:                               #   in Loop: Header=BB34_40 Depth=1
	movzwl	-6(%rdx,%rbx), %edi
	addl	%esi, %edi
	cmpl	%ebp, %edi
	jbe	.LBB34_39
# %bb.42:                               #   in Loop: Header=BB34_40 Depth=1
	movq	(%rdx,%rbx), %rdi
	movl	%r13d, %eax
	subl	%esi, %eax
	movzwl	%ax, %esi
	callq	*-24(%rdx,%rbx)
                                        # kill: def $al killed $al def $rax
	movq	16(%r15), %rcx
	jmp	.LBB34_39
.LBB34_43:
	movzwl	4(%r15), %r13d
	movq	16(%rsp), %r14          # 8-byte Reload
	jmp	.LBB34_47
.LBB34_44:
	xorl	%ecx, %ecx
	xorl	%r12d, %r12d
	jmp	.LBB34_46
.LBB34_45:
	xorl	%ecx, %ecx
.LBB34_46:
	xorl	%eax, %eax
.LBB34_47:
	movzbl	2(%r15), %edx
	addl	$2, %r13d
	movw	%r13w, 4(%r15)
	testq	%rcx, %rcx
	je	.LBB34_53
# %bb.48:
	movzbl	%al, %eax
	shll	$8, %eax
	movzwl	%r12w, %r13d
	orl	%eax, %r13d
	addl	%edx, %r13d
	movzwl	%r13w, %r12d
	movl	$24, %ebx
	xorl	%eax, %eax
	xorl	%ebp, %ebp
	jmp	.LBB34_50
	.p2align	4, 0x90
.LBB34_49:                              #   in Loop: Header=BB34_50 Depth=1
	addq	$1, %rbp
	addq	$32, %rbx
	cmpq	%rcx, %rbp
	jae	.LBB34_54
.LBB34_50:                              # =>This Inner Loop Header: Depth=1
	movq	8(%r15), %rdx
	movzwl	-8(%rdx,%rbx), %esi
	cmpw	%si, %r13w
	jb	.LBB34_49
# %bb.51:                               #   in Loop: Header=BB34_50 Depth=1
	movzwl	-6(%rdx,%rbx), %edi
	addl	%esi, %edi
	cmpl	%r12d, %edi
	jbe	.LBB34_49
# %bb.52:                               #   in Loop: Header=BB34_50 Depth=1
	movq	(%rdx,%rbx), %rdi
	movl	%r13d, %eax
	subl	%esi, %eax
	movzwl	%ax, %esi
	callq	*-24(%rdx,%rbx)
                                        # kill: def $al killed $al def $rax
	movq	16(%r15), %rcx
	jmp	.LBB34_49
.LBB34_53:
	xorl	%eax, %eax
.LBB34_54:
	orb	15(%rsp), %al           # 1-byte Folded Reload
	movb	%al, (%r15)
	movb	6(%r15), %cl
	js	.LBB34_57
# %bb.55:
	andb	$127, %cl
	movb	%cl, (%r14)
	testb	%al, %al
	jne	.LBB34_58
# %bb.56:
	orb	$2, %cl
	jmp	.LBB34_59
.LBB34_57:
	orb	$-128, %cl
	movb	%cl, (%r14)
.LBB34_58:
	andb	$-3, %cl
.LBB34_59:
	movb	%cl, (%r14)
	movl	$7, %eax
	addq	$24, %rsp
	.cfi_def_cfa_offset 56
	popq	%rbx
	.cfi_def_cfa_offset 48
	popq	%r12
	.cfi_def_cfa_offset 40
	popq	%r13
	.cfi_def_cfa_offset 32
	popq	%r14
	.cfi_def_cfa_offset 24
	popq	%r15
	.cfi_def_cfa_offset 16
	popq	%rbp
	.cfi_def_cfa_offset 8
	retq
.Lfunc_end34:
	.size	SLO_absy, .Lfunc_end34-SLO_absy
	.cfi_endproc
                                        # -- End function
	.globl	SLO_xind                # -- Begin function SLO_xind
	.p2align	4, 0x90
	.type	SLO_xind,@function
SLO_xind:                               # @SLO_xind
	.cfi_startproc
# %bb.0:
	pushq	%rbp
	.cfi_def_cfa_offset 16
	pushq	%r15
	.cfi_def_cfa_offset 24
	pushq	%r14
	.cfi_def_cfa_offset 32
	pushq	%r13
	.cfi_def_cfa_offset 40
	pushq	%r12
	.cfi_def_cfa_offset 48
	pushq	%rbx
	.cfi_def_cfa_offset 56
	pushq	%rax
	.cfi_def_cfa_offset 64
	.cfi_offset %rbx, -56
	.cfi_offset %r12, -48
	.cfi_offset %r13, -40
	.cfi_offset %r14, -32
	.cfi_offset %r15, -24
	.cfi_offset %rbp, -16
	movq	%rdi, %r15
	callq	xind
	movq	16(%r15), %rcx
	testq	%rcx, %rcx
	je	.LBB35_1
# %bb.2:
	movl	%eax, %r12d
	movzwl	%ax, %r14d
	movl	$24, %ebp
	xorl	%eax, %eax
	xorl	%ebx, %ebx
	jmp	.LBB35_3
	.p2align	4, 0x90
.LBB35_6:                               #   in Loop: Header=BB35_3 Depth=1
	addq	$1, %rbx
	addq	$32, %rbp
	cmpq	%rcx, %rbx
	jae	.LBB35_7
.LBB35_3:                               # =>This Inner Loop Header: Depth=1
	movq	8(%r15), %rdx
	movzwl	-8(%rdx,%rbp), %esi
	cmpw	%si, %r12w
	jb	.LBB35_6
# %bb.4:                                #   in Loop: Header=BB35_3 Depth=1
	movzwl	-6(%rdx,%rbp), %edi
	addl	%esi, %edi
	cmpl	%r14d, %edi
	jbe	.LBB35_6
# %bb.5:                                #   in Loop: Header=BB35_3 Depth=1
	movq	(%rdx,%rbp), %rdi
	movl	%r14d, %eax
	subl	%esi, %eax
	movzwl	%ax, %esi
	callq	*-24(%rdx,%rbp)
                                        # kill: def $al killed $al def $rax
	movq	16(%r15), %rcx
	jmp	.LBB35_6
.LBB35_7:
	movzbl	%al, %r13d
	addl	%r13d, %r13d
	testq	%rcx, %rcx
	je	.LBB35_13
# %bb.8:
	movl	$24, %ebp
	xorl	%ebx, %ebx
	jmp	.LBB35_9
	.p2align	4, 0x90
.LBB35_12:                              #   in Loop: Header=BB35_9 Depth=1
	addq	$1, %rbx
	addq	$32, %rbp
	cmpq	%rcx, %rbx
	jae	.LBB35_13
.LBB35_9:                               # =>This Inner Loop Header: Depth=1
	movq	8(%r15), %rax
	movzwl	-8(%rax,%rbp), %edx
	cmpw	%dx, %r12w
	jb	.LBB35_12
# %bb.10:                               #   in Loop: Header=BB35_9 Depth=1
	movzwl	-6(%rax,%rbp), %esi
	addl	%edx, %esi
	cmpl	%r14d, %esi
	jbe	.LBB35_12
# %bb.11:                               #   in Loop: Header=BB35_9 Depth=1
	movq	(%rax,%rbp), %rdi
	movl	%r12d, %ecx
	subl	%edx, %ecx
	movzwl	%cx, %esi
	movzbl	%r13b, %edx
	callq	*-16(%rax,%rbp)
	movq	16(%r15), %rcx
	jmp	.LBB35_12
.LBB35_13:
	movzwl	%r13w, %eax
	leaq	6(%r15), %rcx
	movq	%rcx, (%rsp)            # 8-byte Spill
	movb	6(%r15), %cl
	movl	%ecx, %edx
	andb	$127, %dl
	orb	$-128, %cl
	testb	%r13b, %r13b
	movzbl	%cl, %esi
	movzbl	%dl, %ecx
	cmovsl	%esi, %ecx
	jmp	.LBB35_14
.LBB35_1:
	leaq	6(%r15), %rax
	movq	%rax, (%rsp)            # 8-byte Spill
	movb	6(%r15), %cl
	andb	$127, %cl
	xorl	%eax, %eax
.LBB35_14:
	movl	%ecx, %edx
	andb	$-3, %dl
	orb	$2, %cl
	testb	%al, %al
	movzbl	%cl, %ecx
	movzbl	%dl, %edx
	cmovel	%ecx, %edx
	movl	%edx, %ecx
	andb	$-2, %cl
	orb	$1, %dl
	testl	$256, %eax              # imm = 0x100
	movzbl	%cl, %eax
	movzbl	%dl, %ecx
	cmovel	%eax, %ecx
	movb	%cl, 6(%r15)
	movb	(%r15), %bl
	movq	%r15, %rdi
	callq	xind
	movq	16(%r15), %rcx
	testq	%rcx, %rcx
	je	.LBB35_15
# %bb.16:
	movl	%eax, %r13d
	movzwl	%ax, %r12d
	movl	$24, %ebp
	xorl	%eax, %eax
	xorl	%r14d, %r14d
	jmp	.LBB35_17
	.p2align	4, 0x90
.LBB35_20:                              #   in Loop: Header=BB35_17 Depth=1
	addq	$1, %r14
	addq	$32, %rbp
	cmpq	%rcx, %r14
	jae	.LBB35_21
.LBB35_17:                              # =>This Inner Loop Header: Depth=1
	movq	8(%r15), %rdx
	movzwl	-8(%rdx,%rbp), %esi
	cmpw	%si, %r13w
	jb	.LBB35_20
# %bb.18:                               #   in Loop: Header=BB35_17 Depth=1
	movzwl	-6(%rdx,%rbp), %edi
	addl	%esi, %edi
	cmpl	%r12d, %edi
	jbe	.LBB35_20
# %bb.19:                               #   in Loop: Header=BB35_17 Depth=1
	movq	(%rdx,%rbp), %rdi
	movl	%r12d, %eax
	subl	%esi, %eax
	movzwl	%ax, %esi
	callq	*-24(%rdx,%rbp)
                                        # kill: def $al killed $al def $rax
	movq	16(%r15), %rcx
	jmp	.LBB35_20
.LBB35_15:
	xorl	%eax, %eax
.LBB35_21:
	orb	%bl, %al
	movb	%al, (%r15)
	movb	6(%r15), %cl
	js	.LBB35_22
# %bb.24:
	andb	$127, %cl
	movq	(%rsp), %rdx            # 8-byte Reload
	movb	%cl, (%rdx)
	testb	%al, %al
	jne	.LBB35_23
# %bb.25:
	orb	$2, %cl
	jmp	.LBB35_26
.LBB35_22:
	orb	$-128, %cl
	movq	(%rsp), %rdx            # 8-byte Reload
	movb	%cl, (%rdx)
.LBB35_23:
	andb	$-3, %cl
.LBB35_26:
	movb	%cl, (%rdx)
	movl	$8, %eax
	addq	$8, %rsp
	.cfi_def_cfa_offset 56
	popq	%rbx
	.cfi_def_cfa_offset 48
	popq	%r12
	.cfi_def_cfa_offset 40
	popq	%r13
	.cfi_def_cfa_offset 32
	popq	%r14
	.cfi_def_cfa_offset 24
	popq	%r15
	.cfi_def_cfa_offset 16
	popq	%rbp
	.cfi_def_cfa_offset 8
	retq
.Lfunc_end35:
	.size	SLO_xind, .Lfunc_end35-SLO_xind
	.cfi_endproc
                                        # -- End function
	.globl	SLO_indy                # -- Begin function SLO_indy
	.p2align	4, 0x90
	.type	SLO_indy,@function
SLO_indy:                               # @SLO_indy
	.cfi_startproc
# %bb.0:
	pushq	%rbp
	.cfi_def_cfa_offset 16
	pushq	%r15
	.cfi_def_cfa_offset 24
	pushq	%r14
	.cfi_def_cfa_offset 32
	pushq	%r13
	.cfi_def_cfa_offset 40
	pushq	%r12
	.cfi_def_cfa_offset 48
	pushq	%rbx
	.cfi_def_cfa_offset 56
	pushq	%rax
	.cfi_def_cfa_offset 64
	.cfi_offset %rbx, -56
	.cfi_offset %r12, -48
	.cfi_offset %r13, -40
	.cfi_offset %r14, -32
	.cfi_offset %r15, -24
	.cfi_offset %rbp, -16
	movq	%rdi, %r15
	callq	indy
	movq	16(%r15), %rcx
	testq	%rcx, %rcx
	je	.LBB36_1
# %bb.2:
	movl	%eax, %r12d
	movzwl	%ax, %r14d
	movl	$24, %ebp
	xorl	%eax, %eax
	xorl	%ebx, %ebx
	jmp	.LBB36_3
	.p2align	4, 0x90
.LBB36_6:                               #   in Loop: Header=BB36_3 Depth=1
	addq	$1, %rbx
	addq	$32, %rbp
	cmpq	%rcx, %rbx
	jae	.LBB36_7
.LBB36_3:                               # =>This Inner Loop Header: Depth=1
	movq	8(%r15), %rdx
	movzwl	-8(%rdx,%rbp), %esi
	cmpw	%si, %r12w
	jb	.LBB36_6
# %bb.4:                                #   in Loop: Header=BB36_3 Depth=1
	movzwl	-6(%rdx,%rbp), %edi
	addl	%esi, %edi
	cmpl	%r14d, %edi
	jbe	.LBB36_6
# %bb.5:                                #   in Loop: Header=BB36_3 Depth=1
	movq	(%rdx,%rbp), %rdi
	movl	%r14d, %eax
	subl	%esi, %eax
	movzwl	%ax, %esi
	callq	*-24(%rdx,%rbp)
                                        # kill: def $al killed $al def $rax
	movq	16(%r15), %rcx
	jmp	.LBB36_6
.LBB36_7:
	movzbl	%al, %r13d
	addl	%r13d, %r13d
	testq	%rcx, %rcx
	je	.LBB36_13
# %bb.8:
	movl	$24, %ebp
	xorl	%ebx, %ebx
	jmp	.LBB36_9
	.p2align	4, 0x90
.LBB36_12:                              #   in Loop: Header=BB36_9 Depth=1
	addq	$1, %rbx
	addq	$32, %rbp
	cmpq	%rcx, %rbx
	jae	.LBB36_13
.LBB36_9:                               # =>This Inner Loop Header: Depth=1
	movq	8(%r15), %rax
	movzwl	-8(%rax,%rbp), %edx
	cmpw	%dx, %r12w
	jb	.LBB36_12
# %bb.10:                               #   in Loop: Header=BB36_9 Depth=1
	movzwl	-6(%rax,%rbp), %esi
	addl	%edx, %esi
	cmpl	%r14d, %esi
	jbe	.LBB36_12
# %bb.11:                               #   in Loop: Header=BB36_9 Depth=1
	movq	(%rax,%rbp), %rdi
	movl	%r12d, %ecx
	subl	%edx, %ecx
	movzwl	%cx, %esi
	movzbl	%r13b, %edx
	callq	*-16(%rax,%rbp)
	movq	16(%r15), %rcx
	jmp	.LBB36_12
.LBB36_13:
	movzwl	%r13w, %eax
	leaq	6(%r15), %rcx
	movq	%rcx, (%rsp)            # 8-byte Spill
	movb	6(%r15), %cl
	movl	%ecx, %edx
	andb	$127, %dl
	orb	$-128, %cl
	testb	%r13b, %r13b
	movzbl	%cl, %esi
	movzbl	%dl, %ecx
	cmovsl	%esi, %ecx
	jmp	.LBB36_14
.LBB36_1:
	leaq	6(%r15), %rax
	movq	%rax, (%rsp)            # 8-byte Spill
	movb	6(%r15), %cl
	andb	$127, %cl
	xorl	%eax, %eax
.LBB36_14:
	movl	%ecx, %edx
	andb	$-3, %dl
	orb	$2, %cl
	testb	%al, %al
	movzbl	%cl, %ecx
	movzbl	%dl, %edx
	cmovel	%ecx, %edx
	movl	%edx, %ecx
	andb	$-2, %cl
	orb	$1, %dl
	testl	$256, %eax              # imm = 0x100
	movzbl	%cl, %eax
	movzbl	%dl, %ecx
	cmovel	%eax, %ecx
	movb	%cl, 6(%r15)
	movb	(%r15), %bl
	movq	%r15, %rdi
	callq	indy
	movq	16(%r15), %rcx
	testq	%rcx, %rcx
	je	.LBB36_15
# %bb.16:
	movl	%eax, %r13d
	movzwl	%ax, %r12d
	movl	$24, %ebp
	xorl	%eax, %eax
	xorl	%r14d, %r14d
	jmp	.LBB36_17
	.p2align	4, 0x90
.LBB36_20:                              #   in Loop: Header=BB36_17 Depth=1
	addq	$1, %r14
	addq	$32, %rbp
	cmpq	%rcx, %r14
	jae	.LBB36_21
.LBB36_17:                              # =>This Inner Loop Header: Depth=1
	movq	8(%r15), %rdx
	movzwl	-8(%rdx,%rbp), %esi
	cmpw	%si, %r13w
	jb	.LBB36_20
# %bb.18:                               #   in Loop: Header=BB36_17 Depth=1
	movzwl	-6(%rdx,%rbp), %edi
	addl	%esi, %edi
	cmpl	%r12d, %edi
	jbe	.LBB36_20
# %bb.19:                               #   in Loop: Header=BB36_17 Depth=1
	movq	(%rdx,%rbp), %rdi
	movl	%r12d, %eax
	subl	%esi, %eax
	movzwl	%ax, %esi
	callq	*-24(%rdx,%rbp)
                                        # kill: def $al killed $al def $rax
	movq	16(%r15), %rcx
	jmp	.LBB36_20
.LBB36_15:
	xorl	%eax, %eax
.LBB36_21:
	orb	%bl, %al
	movb	%al, (%r15)
	movb	6(%r15), %cl
	js	.LBB36_22
# %bb.24:
	andb	$127, %cl
	movq	(%rsp), %rdx            # 8-byte Reload
	movb	%cl, (%rdx)
	testb	%al, %al
	jne	.LBB36_23
# %bb.25:
	orb	$2, %cl
	jmp	.LBB36_26
.LBB36_22:
	orb	$-128, %cl
	movq	(%rsp), %rdx            # 8-byte Reload
	movb	%cl, (%rdx)
.LBB36_23:
	andb	$-3, %cl
.LBB36_26:
	movb	%cl, (%rdx)
	movl	$8, %eax
	addq	$8, %rsp
	.cfi_def_cfa_offset 56
	popq	%rbx
	.cfi_def_cfa_offset 48
	popq	%r12
	.cfi_def_cfa_offset 40
	popq	%r13
	.cfi_def_cfa_offset 32
	popq	%r14
	.cfi_def_cfa_offset 24
	popq	%r15
	.cfi_def_cfa_offset 16
	popq	%rbp
	.cfi_def_cfa_offset 8
	retq
.Lfunc_end36:
	.size	SLO_indy, .Lfunc_end36-SLO_indy
	.cfi_endproc
                                        # -- End function
	.globl	SRE_zpg                 # -- Begin function SRE_zpg
	.p2align	4, 0x90
	.type	SRE_zpg,@function
SRE_zpg:                                # @SRE_zpg
	.cfi_startproc
# %bb.0:
	pushq	%rbp
	.cfi_def_cfa_offset 16
	pushq	%r15
	.cfi_def_cfa_offset 24
	pushq	%r14
	.cfi_def_cfa_offset 32
	pushq	%r13
	.cfi_def_cfa_offset 40
	pushq	%r12
	.cfi_def_cfa_offset 48
	pushq	%rbx
	.cfi_def_cfa_offset 56
	pushq	%rax
	.cfi_def_cfa_offset 64
	.cfi_offset %rbx, -56
	.cfi_offset %r12, -48
	.cfi_offset %r13, -40
	.cfi_offset %r14, -32
	.cfi_offset %r15, -24
	.cfi_offset %rbp, -16
	movq	%rdi, %r12
	movzwl	4(%rdi), %r14d
	movq	16(%rdi), %rcx
	testq	%rcx, %rcx
	je	.LBB37_1
# %bb.2:
	movl	$24, %ebx
	xorl	%eax, %eax
	xorl	%ebp, %ebp
	jmp	.LBB37_3
	.p2align	4, 0x90
.LBB37_6:                               #   in Loop: Header=BB37_3 Depth=1
	addq	$1, %rbp
	addq	$32, %rbx
	cmpq	%rcx, %rbp
	jae	.LBB37_7
.LBB37_3:                               # =>This Inner Loop Header: Depth=1
	movq	8(%r12), %rdx
	movzwl	-8(%rdx,%rbx), %esi
	cmpw	%si, %r14w
	jb	.LBB37_6
# %bb.4:                                #   in Loop: Header=BB37_3 Depth=1
	movzwl	-6(%rdx,%rbx), %edi
	addl	%esi, %edi
	cmpl	%r14d, %edi
	jbe	.LBB37_6
# %bb.5:                                #   in Loop: Header=BB37_3 Depth=1
	movq	(%rdx,%rbx), %rdi
	movl	%r14d, %eax
	subl	%esi, %eax
	movzwl	%ax, %esi
	callq	*-24(%rdx,%rbx)
                                        # kill: def $al killed $al def $rax
	movq	16(%r12), %rcx
	jmp	.LBB37_6
.LBB37_7:
	addw	$1, 4(%r12)
	testq	%rcx, %rcx
	je	.LBB37_8
# %bb.10:
	movzbl	%al, %r13d
	movl	$24, %ebx
	xorl	%r14d, %r14d
	xorl	%ebp, %ebp
	jmp	.LBB37_11
	.p2align	4, 0x90
.LBB37_14:                              #   in Loop: Header=BB37_11 Depth=1
	addq	$1, %rbp
	addq	$32, %rbx
	cmpq	%rcx, %rbp
	jae	.LBB37_15
.LBB37_11:                              # =>This Inner Loop Header: Depth=1
	movq	8(%r12), %rdx
	movzwl	-8(%rdx,%rbx), %eax
	cmpw	%r13w, %ax
	ja	.LBB37_14
# %bb.12:                               #   in Loop: Header=BB37_11 Depth=1
	movzwl	-6(%rdx,%rbx), %esi
	addl	%eax, %esi
	cmpl	%r13d, %esi
	jbe	.LBB37_14
# %bb.13:                               #   in Loop: Header=BB37_11 Depth=1
	movq	(%rdx,%rbx), %rdi
	movzwl	%r13w, %ecx
	subl	%eax, %ecx
	movzwl	%cx, %esi
	callq	*-24(%rdx,%rbx)
	movl	%eax, %r14d
	movq	16(%r12), %rcx
	jmp	.LBB37_14
.LBB37_15:
	movl	%r14d, %r15d
	shrb	%r15b
	testq	%rcx, %rcx
	je	.LBB37_16
# %bb.17:
	movl	$24, %ebx
	xorl	%ebp, %ebp
	movzwl	%r13w, %eax
	movl	%eax, 4(%rsp)           # 4-byte Spill
	jmp	.LBB37_18
	.p2align	4, 0x90
.LBB37_21:                              #   in Loop: Header=BB37_18 Depth=1
	addq	$1, %rbp
	addq	$32, %rbx
	cmpq	%rcx, %rbp
	jae	.LBB37_22
.LBB37_18:                              # =>This Inner Loop Header: Depth=1
	movq	8(%r12), %rax
	movzwl	-8(%rax,%rbx), %edx
	cmpw	%r13w, %dx
	ja	.LBB37_21
# %bb.19:                               #   in Loop: Header=BB37_18 Depth=1
	movzwl	-6(%rax,%rbx), %esi
	addl	%edx, %esi
	cmpl	%r13d, %esi
	jbe	.LBB37_21
# %bb.20:                               #   in Loop: Header=BB37_18 Depth=1
	movq	(%rax,%rbx), %rdi
	movl	4(%rsp), %ecx           # 4-byte Reload
	subl	%edx, %ecx
	movzwl	%cx, %esi
	movzbl	%r15b, %edx
	callq	*-16(%rax,%rbx)
	movq	16(%r12), %rcx
	jmp	.LBB37_21
.LBB37_1:
	addl	$1, %r14d
	movw	%r14w, 4(%r12)
.LBB37_8:
	xorl	%ecx, %ecx
	xorl	%r15d, %r15d
	jmp	.LBB37_9
.LBB37_16:
	xorl	%ecx, %ecx
.LBB37_22:
	testb	$1, %r14b
	jne	.LBB37_23
.LBB37_9:
	movb	6(%r12), %al
	andb	$-2, %al
.LBB37_24:
	movb	%al, 6(%r12)
	andb	$124, %al
	leal	2(%rax), %edx
	testb	%r15b, %r15b
	movzbl	%al, %eax
	movzbl	%dl, %edx
	cmovnel	%eax, %edx
	movb	%dl, 6(%r12)
	movzwl	4(%r12), %r14d
	testq	%rcx, %rcx
	je	.LBB37_25
# %bb.26:
	movl	$24, %ebx
	xorl	%eax, %eax
	xorl	%ebp, %ebp
	jmp	.LBB37_27
	.p2align	4, 0x90
.LBB37_30:                              #   in Loop: Header=BB37_27 Depth=1
	addq	$1, %rbp
	addq	$32, %rbx
	cmpq	%rcx, %rbp
	jae	.LBB37_31
.LBB37_27:                              # =>This Inner Loop Header: Depth=1
	movq	8(%r12), %rdx
	movzwl	-8(%rdx,%rbx), %esi
	cmpw	%si, %r14w
	jb	.LBB37_30
# %bb.28:                               #   in Loop: Header=BB37_27 Depth=1
	movzwl	-6(%rdx,%rbx), %edi
	addl	%esi, %edi
	cmpl	%r14d, %edi
	jbe	.LBB37_30
# %bb.29:                               #   in Loop: Header=BB37_27 Depth=1
	movq	(%rdx,%rbx), %rdi
	movl	%r14d, %eax
	subl	%esi, %eax
	movzwl	%ax, %esi
	callq	*-24(%rdx,%rbx)
                                        # kill: def $al killed $al def $rax
	movq	16(%r12), %rcx
	jmp	.LBB37_30
.LBB37_31:
	addw	$1, 4(%r12)
	testq	%rcx, %rcx
	je	.LBB37_32
# %bb.33:
	movzbl	%al, %r14d
	movl	$24, %ebx
	xorl	%eax, %eax
	xorl	%ebp, %ebp
	jmp	.LBB37_34
	.p2align	4, 0x90
.LBB37_37:                              #   in Loop: Header=BB37_34 Depth=1
	addq	$1, %rbp
	addq	$32, %rbx
	cmpq	%rcx, %rbp
	jae	.LBB37_38
.LBB37_34:                              # =>This Inner Loop Header: Depth=1
	movq	8(%r12), %rdx
	movzwl	-8(%rdx,%rbx), %esi
	cmpw	%r14w, %si
	ja	.LBB37_37
# %bb.35:                               #   in Loop: Header=BB37_34 Depth=1
	movzwl	-6(%rdx,%rbx), %edi
	addl	%esi, %edi
	cmpl	%r14d, %edi
	jbe	.LBB37_37
# %bb.36:                               #   in Loop: Header=BB37_34 Depth=1
	movq	(%rdx,%rbx), %rdi
	movzwl	%r14w, %eax
	subl	%esi, %eax
	movzwl	%ax, %esi
	callq	*-24(%rdx,%rbx)
                                        # kill: def $al killed $al def $rax
	movq	16(%r12), %rcx
	jmp	.LBB37_37
.LBB37_25:
	addl	$1, %r14d
	movw	%r14w, 4(%r12)
	xorl	%eax, %eax
.LBB37_38:
	xorb	(%r12), %al
	movb	%al, (%r12)
	movb	6(%r12), %cl
	js	.LBB37_39
.LBB37_41:
	andb	$127, %cl
	movb	%cl, 6(%r12)
	testb	%al, %al
	jne	.LBB37_40
# %bb.42:
	orb	$2, %cl
	jmp	.LBB37_43
.LBB37_32:
	xorl	%eax, %eax
	xorb	(%r12), %al
	movb	%al, (%r12)
	movb	6(%r12), %cl
	jns	.LBB37_41
.LBB37_39:
	orb	$-128, %cl
	movb	%cl, 6(%r12)
.LBB37_40:
	andb	$-3, %cl
.LBB37_43:
	movb	%cl, 6(%r12)
	movl	$5, %eax
	addq	$8, %rsp
	.cfi_def_cfa_offset 56
	popq	%rbx
	.cfi_def_cfa_offset 48
	popq	%r12
	.cfi_def_cfa_offset 40
	popq	%r13
	.cfi_def_cfa_offset 32
	popq	%r14
	.cfi_def_cfa_offset 24
	popq	%r15
	.cfi_def_cfa_offset 16
	popq	%rbp
	.cfi_def_cfa_offset 8
	retq
.LBB37_23:
	.cfi_def_cfa_offset 64
	movb	6(%r12), %al
	orb	$1, %al
	jmp	.LBB37_24
.Lfunc_end37:
	.size	SRE_zpg, .Lfunc_end37-SRE_zpg
	.cfi_endproc
                                        # -- End function
	.globl	SRE_zpgx                # -- Begin function SRE_zpgx
	.p2align	4, 0x90
	.type	SRE_zpgx,@function
SRE_zpgx:                               # @SRE_zpgx
	.cfi_startproc
# %bb.0:
	pushq	%rbp
	.cfi_def_cfa_offset 16
	pushq	%r15
	.cfi_def_cfa_offset 24
	pushq	%r14
	.cfi_def_cfa_offset 32
	pushq	%r13
	.cfi_def_cfa_offset 40
	pushq	%r12
	.cfi_def_cfa_offset 48
	pushq	%rbx
	.cfi_def_cfa_offset 56
	pushq	%rax
	.cfi_def_cfa_offset 64
	.cfi_offset %rbx, -56
	.cfi_offset %r12, -48
	.cfi_offset %r13, -40
	.cfi_offset %r14, -32
	.cfi_offset %r15, -24
	.cfi_offset %rbp, -16
	movq	%rdi, %r13
	movzwl	4(%rdi), %r15d
	movq	16(%rdi), %rcx
	testq	%rcx, %rcx
	je	.LBB38_1
# %bb.2:
	movzwl	%r15w, %r14d
	movl	$24, %ebx
	xorl	%eax, %eax
	xorl	%ebp, %ebp
	jmp	.LBB38_3
	.p2align	4, 0x90
.LBB38_6:                               #   in Loop: Header=BB38_3 Depth=1
	addq	$1, %rbp
	addq	$32, %rbx
	cmpq	%rcx, %rbp
	jae	.LBB38_7
.LBB38_3:                               # =>This Inner Loop Header: Depth=1
	movq	8(%r13), %rdx
	movzwl	-8(%rdx,%rbx), %esi
	cmpw	%si, %r15w
	jb	.LBB38_6
# %bb.4:                                #   in Loop: Header=BB38_3 Depth=1
	movzwl	-6(%rdx,%rbx), %edi
	addl	%esi, %edi
	cmpl	%r14d, %edi
	jbe	.LBB38_6
# %bb.5:                                #   in Loop: Header=BB38_3 Depth=1
	movq	(%rdx,%rbx), %rdi
	movl	%r15d, %eax
	subl	%esi, %eax
	movzwl	%ax, %esi
	callq	*-24(%rdx,%rbx)
                                        # kill: def $al killed $al def $rax
	movq	16(%r13), %rcx
	jmp	.LBB38_6
.LBB38_7:
	movzwl	4(%r13), %r15d
	jmp	.LBB38_8
.LBB38_1:
	xorl	%ecx, %ecx
	xorl	%eax, %eax
.LBB38_8:
	addb	1(%r13), %al
	addl	$1, %r15d
	movw	%r15w, 4(%r13)
	testq	%rcx, %rcx
	je	.LBB38_9
# %bb.11:
	movzbl	%al, %r14d
	movzwl	%r14w, %r15d
	movl	$24, %ebx
	xorl	%eax, %eax
	xorl	%ebp, %ebp
	jmp	.LBB38_12
	.p2align	4, 0x90
.LBB38_15:                              #   in Loop: Header=BB38_12 Depth=1
	addq	$1, %rbp
	addq	$32, %rbx
	cmpq	%rcx, %rbp
	jae	.LBB38_16
.LBB38_12:                              # =>This Inner Loop Header: Depth=1
	movq	8(%r13), %r8
	movzwl	-8(%r8,%rbx), %edx
	cmpw	%r14w, %dx
	ja	.LBB38_15
# %bb.13:                               #   in Loop: Header=BB38_12 Depth=1
	movzwl	-6(%r8,%rbx), %esi
	addl	%edx, %esi
	cmpl	%r15d, %esi
	jbe	.LBB38_15
# %bb.14:                               #   in Loop: Header=BB38_12 Depth=1
	movq	(%r8,%rbx), %rdi
	movl	%r15d, %ecx
	subl	%edx, %ecx
	movzwl	%cx, %esi
	callq	*-24(%r8,%rbx)
                                        # kill: def $al killed $al def $rax
	movq	16(%r13), %rcx
	jmp	.LBB38_15
.LBB38_16:
	movq	%rax, (%rsp)            # 8-byte Spill
	movq	%rax, %r12
                                        # kill: def $r12b killed $r12b killed $r12 def $r12
	shrb	%r12b
	testq	%rcx, %rcx
	je	.LBB38_17
# %bb.18:
	movl	$24, %ebx
	xorl	%ebp, %ebp
	jmp	.LBB38_19
	.p2align	4, 0x90
.LBB38_22:                              #   in Loop: Header=BB38_19 Depth=1
	addq	$1, %rbp
	addq	$32, %rbx
	cmpq	%rcx, %rbp
	jae	.LBB38_23
.LBB38_19:                              # =>This Inner Loop Header: Depth=1
	movq	8(%r13), %rax
	movzwl	-8(%rax,%rbx), %edx
	cmpw	%r14w, %dx
	ja	.LBB38_22
# %bb.20:                               #   in Loop: Header=BB38_19 Depth=1
	movzwl	-6(%rax,%rbx), %esi
	addl	%edx, %esi
	cmpl	%r15d, %esi
	jbe	.LBB38_22
# %bb.21:                               #   in Loop: Header=BB38_19 Depth=1
	movq	(%rax,%rbx), %rdi
	movl	%r15d, %ecx
	subl	%edx, %ecx
	movzwl	%cx, %esi
	movzbl	%r12b, %edx
	callq	*-16(%rax,%rbx)
	movq	16(%r13), %rcx
	jmp	.LBB38_22
.LBB38_9:
	xorl	%ecx, %ecx
	xorl	%r12d, %r12d
	jmp	.LBB38_10
.LBB38_17:
	xorl	%ecx, %ecx
.LBB38_23:
	testb	$1, (%rsp)              # 1-byte Folded Reload
	jne	.LBB38_24
.LBB38_10:
	movb	6(%r13), %al
	andb	$-2, %al
	jmp	.LBB38_25
.LBB38_24:
	movb	6(%r13), %al
	orb	$1, %al
.LBB38_25:
	movb	%al, 6(%r13)
	andb	$124, %al
	leal	2(%rax), %edx
	testb	%r12b, %r12b
	movzbl	%al, %eax
	movzbl	%dl, %edx
	cmovnel	%eax, %edx
	movb	%dl, 6(%r13)
	movzwl	4(%r13), %r14d
	testq	%rcx, %rcx
	je	.LBB38_26
# %bb.27:
	movl	$24, %ebx
	xorl	%eax, %eax
	xorl	%ebp, %ebp
	jmp	.LBB38_28
	.p2align	4, 0x90
.LBB38_31:                              #   in Loop: Header=BB38_28 Depth=1
	addq	$1, %rbp
	addq	$32, %rbx
	cmpq	%rcx, %rbp
	jae	.LBB38_32
.LBB38_28:                              # =>This Inner Loop Header: Depth=1
	movq	8(%r13), %rdx
	movzwl	-8(%rdx,%rbx), %esi
	cmpw	%si, %r14w
	jb	.LBB38_31
# %bb.29:                               #   in Loop: Header=BB38_28 Depth=1
	movzwl	-6(%rdx,%rbx), %edi
	addl	%esi, %edi
	cmpl	%r14d, %edi
	jbe	.LBB38_31
# %bb.30:                               #   in Loop: Header=BB38_28 Depth=1
	movq	(%rdx,%rbx), %rdi
	movl	%r14d, %eax
	subl	%esi, %eax
	movzwl	%ax, %esi
	callq	*-24(%rdx,%rbx)
                                        # kill: def $al killed $al def $rax
	movq	16(%r13), %rcx
	jmp	.LBB38_31
.LBB38_32:
	addb	1(%r13), %al
	addw	$1, 4(%r13)
	testq	%rcx, %rcx
	je	.LBB38_33
# %bb.34:
	movzbl	%al, %r15d
	movzwl	%r15w, %r14d
	movl	$24, %ebx
	xorl	%eax, %eax
	xorl	%ebp, %ebp
	jmp	.LBB38_35
	.p2align	4, 0x90
.LBB38_38:                              #   in Loop: Header=BB38_35 Depth=1
	addq	$1, %rbp
	addq	$32, %rbx
	cmpq	%rcx, %rbp
	jae	.LBB38_39
.LBB38_35:                              # =>This Inner Loop Header: Depth=1
	movq	8(%r13), %rdx
	movzwl	-8(%rdx,%rbx), %esi
	cmpw	%r15w, %si
	ja	.LBB38_38
# %bb.36:                               #   in Loop: Header=BB38_35 Depth=1
	movzwl	-6(%rdx,%rbx), %edi
	addl	%esi, %edi
	cmpl	%r14d, %edi
	jbe	.LBB38_38
# %bb.37:                               #   in Loop: Header=BB38_35 Depth=1
	movq	(%rdx,%rbx), %rdi
	movl	%r14d, %eax
	subl	%esi, %eax
	movzwl	%ax, %esi
	callq	*-24(%rdx,%rbx)
                                        # kill: def $al killed $al def $rax
	movq	16(%r13), %rcx
	jmp	.LBB38_38
.LBB38_26:
	addl	$1, %r14d
	movw	%r14w, 4(%r13)
	xorl	%eax, %eax
.LBB38_39:
	xorb	(%r13), %al
	movb	%al, (%r13)
	movb	6(%r13), %cl
	js	.LBB38_40
.LBB38_42:
	andb	$127, %cl
	movb	%cl, 6(%r13)
	testb	%al, %al
	jne	.LBB38_41
# %bb.43:
	orb	$2, %cl
	jmp	.LBB38_44
.LBB38_33:
	xorl	%eax, %eax
	xorb	(%r13), %al
	movb	%al, (%r13)
	movb	6(%r13), %cl
	jns	.LBB38_42
.LBB38_40:
	orb	$-128, %cl
	movb	%cl, 6(%r13)
.LBB38_41:
	andb	$-3, %cl
.LBB38_44:
	movb	%cl, 6(%r13)
	movl	$6, %eax
	addq	$8, %rsp
	.cfi_def_cfa_offset 56
	popq	%rbx
	.cfi_def_cfa_offset 48
	popq	%r12
	.cfi_def_cfa_offset 40
	popq	%r13
	.cfi_def_cfa_offset 32
	popq	%r14
	.cfi_def_cfa_offset 24
	popq	%r15
	.cfi_def_cfa_offset 16
	popq	%rbp
	.cfi_def_cfa_offset 8
	retq
.Lfunc_end38:
	.size	SRE_zpgx, .Lfunc_end38-SRE_zpgx
	.cfi_endproc
                                        # -- End function
	.globl	SRE_abss                # -- Begin function SRE_abss
	.p2align	4, 0x90
	.type	SRE_abss,@function
SRE_abss:                               # @SRE_abss
	.cfi_startproc
# %bb.0:
	pushq	%rbp
	.cfi_def_cfa_offset 16
	pushq	%r15
	.cfi_def_cfa_offset 24
	pushq	%r14
	.cfi_def_cfa_offset 32
	pushq	%r13
	.cfi_def_cfa_offset 40
	pushq	%r12
	.cfi_def_cfa_offset 48
	pushq	%rbx
	.cfi_def_cfa_offset 56
	subq	$24, %rsp
	.cfi_def_cfa_offset 80
	.cfi_offset %rbx, -56
	.cfi_offset %r12, -48
	.cfi_offset %r13, -40
	.cfi_offset %r14, -32
	.cfi_offset %r15, -24
	.cfi_offset %rbp, -16
	movq	%rdi, %r13
	movzwl	4(%rdi), %r12d
	movq	16(%rdi), %rcx
	testq	%rcx, %rcx
	je	.LBB39_12
# %bb.1:
	movzwl	%r12w, %r14d
	movl	$24, %ebx
	xorl	%eax, %eax
	xorl	%ebp, %ebp
	jmp	.LBB39_3
	.p2align	4, 0x90
.LBB39_2:                               #   in Loop: Header=BB39_3 Depth=1
	addq	$1, %rbp
	addq	$32, %rbx
	cmpq	%rcx, %rbp
	jae	.LBB39_6
.LBB39_3:                               # =>This Inner Loop Header: Depth=1
	movq	8(%r13), %rdx
	movzwl	-8(%rdx,%rbx), %esi
	cmpw	%si, %r12w
	jb	.LBB39_2
# %bb.4:                                #   in Loop: Header=BB39_3 Depth=1
	movzwl	-6(%rdx,%rbx), %edi
	addl	%esi, %edi
	cmpl	%r14d, %edi
	jbe	.LBB39_2
# %bb.5:                                #   in Loop: Header=BB39_3 Depth=1
	movq	(%rdx,%rbx), %rdi
	movl	%r12d, %eax
	subl	%esi, %eax
	movzwl	%ax, %esi
	callq	*-24(%rdx,%rbx)
                                        # kill: def $al killed $al def $rax
	movq	16(%r13), %rcx
	jmp	.LBB39_2
.LBB39_6:
	movl	4(%r13), %r12d
	testq	%rcx, %rcx
	je	.LBB39_12
# %bb.7:
	movzbl	%al, %r14d
	addl	$1, %r12d
	movzwl	%r12w, %r15d
	movl	$24, %ebx
	xorl	%eax, %eax
	xorl	%ebp, %ebp
	jmp	.LBB39_9
	.p2align	4, 0x90
.LBB39_8:                               #   in Loop: Header=BB39_9 Depth=1
	addq	$1, %rbp
	addq	$32, %rbx
	cmpq	%rcx, %rbp
	jae	.LBB39_32
.LBB39_9:                               # =>This Inner Loop Header: Depth=1
	movq	8(%r13), %rdx
	movzwl	-8(%rdx,%rbx), %esi
	cmpw	%si, %r12w
	jb	.LBB39_8
# %bb.10:                               #   in Loop: Header=BB39_9 Depth=1
	movzwl	-6(%rdx,%rbx), %edi
	addl	%esi, %edi
	cmpl	%r15d, %edi
	jbe	.LBB39_8
# %bb.11:                               #   in Loop: Header=BB39_9 Depth=1
	movq	(%rdx,%rbx), %rdi
	movl	%r12d, %eax
	subl	%esi, %eax
	movzwl	%ax, %esi
	callq	*-24(%rdx,%rbx)
                                        # kill: def $al killed $al def $rax
	movq	16(%r13), %rcx
	jmp	.LBB39_8
.LBB39_12:
	addl	$2, %r12d
	movw	%r12w, 4(%r13)
.LBB39_13:
	xorl	%ecx, %ecx
	xorl	%ebx, %ebx
.LBB39_14:
	movb	6(%r13), %al
	andb	$-2, %al
.LBB39_15:
	movb	%al, 6(%r13)
	andb	$124, %al
	leal	2(%rax), %edx
	testb	%bl, %bl
	movzbl	%al, %eax
	movzbl	%dl, %edx
	cmovnel	%eax, %edx
	movb	%dl, 6(%r13)
	movzwl	4(%r13), %r12d
	testq	%rcx, %rcx
	je	.LBB39_27
# %bb.16:
	movzwl	%r12w, %r14d
	movl	$24, %ebx
	xorl	%eax, %eax
	xorl	%ebp, %ebp
	jmp	.LBB39_18
	.p2align	4, 0x90
.LBB39_17:                              #   in Loop: Header=BB39_18 Depth=1
	addq	$1, %rbp
	addq	$32, %rbx
	cmpq	%rcx, %rbp
	jae	.LBB39_21
.LBB39_18:                              # =>This Inner Loop Header: Depth=1
	movq	8(%r13), %rdx
	movzwl	-8(%rdx,%rbx), %esi
	cmpw	%si, %r12w
	jb	.LBB39_17
# %bb.19:                               #   in Loop: Header=BB39_18 Depth=1
	movzwl	-6(%rdx,%rbx), %edi
	addl	%esi, %edi
	cmpl	%r14d, %edi
	jbe	.LBB39_17
# %bb.20:                               #   in Loop: Header=BB39_18 Depth=1
	movq	(%rdx,%rbx), %rdi
	movl	%r12d, %eax
	subl	%esi, %eax
	movzwl	%ax, %esi
	callq	*-24(%rdx,%rbx)
                                        # kill: def $al killed $al def $rax
	movq	16(%r13), %rcx
	jmp	.LBB39_17
.LBB39_21:
	movl	4(%r13), %r12d
	testq	%rcx, %rcx
	je	.LBB39_27
# %bb.22:
	movzbl	%al, %r14d
	addl	$1, %r12d
	movzwl	%r12w, %r15d
	movl	$24, %ebx
	xorl	%eax, %eax
	xorl	%ebp, %ebp
	jmp	.LBB39_24
	.p2align	4, 0x90
.LBB39_23:                              #   in Loop: Header=BB39_24 Depth=1
	addq	$1, %rbp
	addq	$32, %rbx
	cmpq	%rcx, %rbp
	jae	.LBB39_38
.LBB39_24:                              # =>This Inner Loop Header: Depth=1
	movq	8(%r13), %rdx
	movzwl	-8(%rdx,%rbx), %esi
	cmpw	%si, %r12w
	jb	.LBB39_23
# %bb.25:                               #   in Loop: Header=BB39_24 Depth=1
	movzwl	-6(%rdx,%rbx), %edi
	addl	%esi, %edi
	cmpl	%r15d, %edi
	jbe	.LBB39_23
# %bb.26:                               #   in Loop: Header=BB39_24 Depth=1
	movq	(%rdx,%rbx), %rdi
	movl	%r12d, %eax
	subl	%esi, %eax
	movzwl	%ax, %esi
	callq	*-24(%rdx,%rbx)
                                        # kill: def $al killed $al def $rax
	movq	16(%r13), %rcx
	jmp	.LBB39_23
.LBB39_27:
	addl	$2, %r12d
	movw	%r12w, 4(%r13)
.LBB39_28:
	xorl	%eax, %eax
.LBB39_29:
	xorb	(%r13), %al
	movb	%al, (%r13)
	movb	6(%r13), %cl
	js	.LBB39_44
# %bb.30:
	andb	$127, %cl
	movb	%cl, 6(%r13)
	testb	%al, %al
	jne	.LBB39_45
# %bb.31:
	orb	$2, %cl
	jmp	.LBB39_46
.LBB39_32:
	addw	$2, 4(%r13)
	testq	%rcx, %rcx
	je	.LBB39_13
# %bb.33:
	movzbl	%al, %eax
	shll	$8, %eax
	movzwl	%r14w, %r14d
	orl	%eax, %r14d
	movzwl	%r14w, %r12d
	movl	$24, %ebx
	xorl	%eax, %eax
	xorl	%ebp, %ebp
	jmp	.LBB39_35
	.p2align	4, 0x90
.LBB39_34:                              #   in Loop: Header=BB39_35 Depth=1
	addq	$1, %rbp
	addq	$32, %rbx
	cmpq	%rcx, %rbp
	jae	.LBB39_47
.LBB39_35:                              # =>This Inner Loop Header: Depth=1
	movq	8(%r13), %r8
	movzwl	-8(%r8,%rbx), %edx
	cmpw	%dx, %r14w
	jb	.LBB39_34
# %bb.36:                               #   in Loop: Header=BB39_35 Depth=1
	movzwl	-6(%r8,%rbx), %esi
	addl	%edx, %esi
	cmpl	%r12d, %esi
	jbe	.LBB39_34
# %bb.37:                               #   in Loop: Header=BB39_35 Depth=1
	movq	(%r8,%rbx), %rdi
	movl	%r14d, %ecx
	subl	%edx, %ecx
	movzwl	%cx, %esi
	callq	*-24(%r8,%rbx)
                                        # kill: def $al killed $al def $rax
	movq	16(%r13), %rcx
	jmp	.LBB39_34
.LBB39_38:
	addw	$2, 4(%r13)
	testq	%rcx, %rcx
	je	.LBB39_28
# %bb.39:
	movzbl	%al, %eax
	shll	$8, %eax
	movzwl	%r14w, %r15d
	orl	%eax, %r15d
	movzwl	%r15w, %r14d
	movl	$24, %ebp
	xorl	%eax, %eax
	xorl	%ebx, %ebx
	jmp	.LBB39_41
	.p2align	4, 0x90
.LBB39_40:                              #   in Loop: Header=BB39_41 Depth=1
	addq	$1, %rbx
	addq	$32, %rbp
	cmpq	%rcx, %rbx
	jae	.LBB39_29
.LBB39_41:                              # =>This Inner Loop Header: Depth=1
	movq	8(%r13), %rdx
	movzwl	-8(%rdx,%rbp), %esi
	cmpw	%si, %r15w
	jb	.LBB39_40
# %bb.42:                               #   in Loop: Header=BB39_41 Depth=1
	movzwl	-6(%rdx,%rbp), %edi
	addl	%esi, %edi
	cmpl	%r14d, %edi
	jbe	.LBB39_40
# %bb.43:                               #   in Loop: Header=BB39_41 Depth=1
	movq	(%rdx,%rbp), %rdi
	movl	%r15d, %eax
	subl	%esi, %eax
	movzwl	%ax, %esi
	callq	*-24(%rdx,%rbp)
                                        # kill: def $al killed $al def $rax
	movq	16(%r13), %rcx
	jmp	.LBB39_40
.LBB39_44:
	orb	$-128, %cl
	movb	%cl, 6(%r13)
.LBB39_45:
	andb	$-3, %cl
.LBB39_46:
	movb	%cl, 6(%r13)
	movl	$6, %eax
	addq	$24, %rsp
	.cfi_def_cfa_offset 56
	popq	%rbx
	.cfi_def_cfa_offset 48
	popq	%r12
	.cfi_def_cfa_offset 40
	popq	%r13
	.cfi_def_cfa_offset 32
	popq	%r14
	.cfi_def_cfa_offset 24
	popq	%r15
	.cfi_def_cfa_offset 16
	popq	%rbp
	.cfi_def_cfa_offset 8
	retq
.LBB39_47:
	.cfi_def_cfa_offset 80
	movq	%rax, 16(%rsp)          # 8-byte Spill
	movl	%eax, %ebx
	shrb	%bl
	testq	%rcx, %rcx
	je	.LBB39_54
# %bb.48:
	movl	$24, %r15d
	xorl	%ebp, %ebp
	movzbl	%bl, %eax
	movl	%eax, 12(%rsp)          # 4-byte Spill
	jmp	.LBB39_50
	.p2align	4, 0x90
.LBB39_49:                              #   in Loop: Header=BB39_50 Depth=1
	addq	$1, %rbp
	addq	$32, %r15
	cmpq	%rcx, %rbp
	jae	.LBB39_55
.LBB39_50:                              # =>This Inner Loop Header: Depth=1
	movq	8(%r13), %rax
	movzwl	-8(%rax,%r15), %edx
	cmpw	%dx, %r14w
	jb	.LBB39_49
# %bb.51:                               #   in Loop: Header=BB39_50 Depth=1
	movzwl	-6(%rax,%r15), %esi
	addl	%edx, %esi
	cmpl	%r12d, %esi
	jbe	.LBB39_49
# %bb.52:                               #   in Loop: Header=BB39_50 Depth=1
	movq	(%rax,%r15), %rdi
	movl	%r14d, %ecx
	subl	%edx, %ecx
	movzwl	%cx, %esi
	movl	12(%rsp), %edx          # 4-byte Reload
	callq	*-16(%rax,%r15)
	movq	16(%r13), %rcx
	jmp	.LBB39_49
.LBB39_54:
	xorl	%ecx, %ecx
.LBB39_55:
	testb	$1, 16(%rsp)            # 1-byte Folded Reload
	je	.LBB39_14
# %bb.56:
	movb	6(%r13), %al
	orb	$1, %al
	jmp	.LBB39_15
.Lfunc_end39:
	.size	SRE_abss, .Lfunc_end39-SRE_abss
	.cfi_endproc
                                        # -- End function
	.globl	SRE_absx                # -- Begin function SRE_absx
	.p2align	4, 0x90
	.type	SRE_absx,@function
SRE_absx:                               # @SRE_absx
	.cfi_startproc
# %bb.0:
	pushq	%rbp
	.cfi_def_cfa_offset 16
	pushq	%r15
	.cfi_def_cfa_offset 24
	pushq	%r14
	.cfi_def_cfa_offset 32
	pushq	%r13
	.cfi_def_cfa_offset 40
	pushq	%r12
	.cfi_def_cfa_offset 48
	pushq	%rbx
	.cfi_def_cfa_offset 56
	subq	$24, %rsp
	.cfi_def_cfa_offset 80
	.cfi_offset %rbx, -56
	.cfi_offset %r12, -48
	.cfi_offset %r13, -40
	.cfi_offset %r14, -32
	.cfi_offset %r15, -24
	.cfi_offset %rbp, -16
	movq	%rdi, %r13
	movzwl	4(%rdi), %r12d
	movq	16(%rdi), %rcx
	testq	%rcx, %rcx
	je	.LBB40_13
# %bb.1:
	movzwl	%r12w, %r14d
	movl	$24, %ebx
	xorl	%eax, %eax
	xorl	%ebp, %ebp
	jmp	.LBB40_3
	.p2align	4, 0x90
.LBB40_2:                               #   in Loop: Header=BB40_3 Depth=1
	addq	$1, %rbp
	addq	$32, %rbx
	cmpq	%rcx, %rbp
	jae	.LBB40_6
.LBB40_3:                               # =>This Inner Loop Header: Depth=1
	movq	8(%r13), %rdx
	movzwl	-8(%rdx,%rbx), %esi
	cmpw	%si, %r12w
	jb	.LBB40_2
# %bb.4:                                #   in Loop: Header=BB40_3 Depth=1
	movzwl	-6(%rdx,%rbx), %edi
	addl	%esi, %edi
	cmpl	%r14d, %edi
	jbe	.LBB40_2
# %bb.5:                                #   in Loop: Header=BB40_3 Depth=1
	movq	(%rdx,%rbx), %rdi
	movl	%r12d, %eax
	subl	%esi, %eax
	movzwl	%ax, %esi
	callq	*-24(%rdx,%rbx)
                                        # kill: def $al killed $al def $rax
	movq	16(%r13), %rcx
	jmp	.LBB40_2
.LBB40_6:
	movzbl	%al, %r14d
	movl	4(%r13), %r12d
	testq	%rcx, %rcx
	je	.LBB40_14
# %bb.7:
	addl	$1, %r12d
	movzwl	%r12w, %r15d
	movl	$24, %ebx
	xorl	%eax, %eax
	xorl	%ebp, %ebp
	jmp	.LBB40_9
	.p2align	4, 0x90
.LBB40_8:                               #   in Loop: Header=BB40_9 Depth=1
	addq	$1, %rbp
	addq	$32, %rbx
	cmpq	%rcx, %rbp
	jae	.LBB40_12
.LBB40_9:                               # =>This Inner Loop Header: Depth=1
	movq	8(%r13), %rdx
	movzwl	-8(%rdx,%rbx), %esi
	cmpw	%si, %r12w
	jb	.LBB40_8
# %bb.10:                               #   in Loop: Header=BB40_9 Depth=1
	movzwl	-6(%rdx,%rbx), %edi
	addl	%esi, %edi
	cmpl	%r15d, %edi
	jbe	.LBB40_8
# %bb.11:                               #   in Loop: Header=BB40_9 Depth=1
	movq	(%rdx,%rbx), %rdi
	movl	%r12d, %eax
	subl	%esi, %eax
	movzwl	%ax, %esi
	callq	*-24(%rdx,%rbx)
                                        # kill: def $al killed $al def $rax
	movq	16(%r13), %rcx
	jmp	.LBB40_8
.LBB40_12:
	movzwl	4(%r13), %r12d
	jmp	.LBB40_16
.LBB40_13:
	xorl	%ecx, %ecx
	xorl	%r14d, %r14d
	jmp	.LBB40_15
.LBB40_14:
	xorl	%ecx, %ecx
.LBB40_15:
	xorl	%eax, %eax
.LBB40_16:
	movzbl	1(%r13), %edx
	addl	$2, %r12d
	movw	%r12w, 4(%r13)
	testq	%rcx, %rcx
	je	.LBB40_28
# %bb.17:
	movzbl	%al, %eax
	shll	$8, %eax
	movzwl	%r14w, %r15d
	orl	%eax, %r15d
	addl	%edx, %r15d
	movzwl	%r15w, %r12d
	movl	$24, %ebx
	xorl	%r14d, %r14d
	xorl	%ebp, %ebp
	jmp	.LBB40_19
	.p2align	4, 0x90
.LBB40_18:                              #   in Loop: Header=BB40_19 Depth=1
	addq	$1, %rbp
	addq	$32, %rbx
	cmpq	%rcx, %rbp
	jae	.LBB40_22
.LBB40_19:                              # =>This Inner Loop Header: Depth=1
	movq	8(%r13), %rdx
	movzwl	-8(%rdx,%rbx), %eax
	cmpw	%ax, %r15w
	jb	.LBB40_18
# %bb.20:                               #   in Loop: Header=BB40_19 Depth=1
	movzwl	-6(%rdx,%rbx), %esi
	addl	%eax, %esi
	cmpl	%r12d, %esi
	jbe	.LBB40_18
# %bb.21:                               #   in Loop: Header=BB40_19 Depth=1
	movq	(%rdx,%rbx), %rdi
	movl	%r15d, %ecx
	subl	%eax, %ecx
	movzwl	%cx, %esi
	callq	*-24(%rdx,%rbx)
	movl	%eax, %r14d
	movq	16(%r13), %rcx
	jmp	.LBB40_18
.LBB40_22:
	movl	%r14d, %eax
	shrb	%al
	testq	%rcx, %rcx
	movq	%rax, 16(%rsp)          # 8-byte Spill
	je	.LBB40_29
# %bb.23:
	movl	$24, %ebx
	xorl	%ebp, %ebp
	movzbl	%al, %eax
	movl	%eax, 12(%rsp)          # 4-byte Spill
	jmp	.LBB40_25
	.p2align	4, 0x90
.LBB40_24:                              #   in Loop: Header=BB40_25 Depth=1
	addq	$1, %rbp
	addq	$32, %rbx
	cmpq	%rcx, %rbp
	jae	.LBB40_30
.LBB40_25:                              # =>This Inner Loop Header: Depth=1
	movq	8(%r13), %rax
	movzwl	-8(%rax,%rbx), %edx
	cmpw	%dx, %r15w
	jb	.LBB40_24
# %bb.26:                               #   in Loop: Header=BB40_25 Depth=1
	movzwl	-6(%rax,%rbx), %esi
	addl	%edx, %esi
	cmpl	%r12d, %esi
	jbe	.LBB40_24
# %bb.27:                               #   in Loop: Header=BB40_25 Depth=1
	movq	(%rax,%rbx), %rdi
	movl	%r15d, %ecx
	subl	%edx, %ecx
	movzwl	%cx, %esi
	movl	12(%rsp), %edx          # 4-byte Reload
	callq	*-16(%rax,%rbx)
	movq	16(%r13), %rcx
	jmp	.LBB40_24
.LBB40_28:
	xorl	%ecx, %ecx
	xorl	%esi, %esi
	jmp	.LBB40_32
.LBB40_29:
	xorl	%ecx, %ecx
.LBB40_30:
	testb	$1, %r14b
	jne	.LBB40_33
# %bb.31:
	movq	16(%rsp), %rsi          # 8-byte Reload
.LBB40_32:
	movb	6(%r13), %al
	andb	$-2, %al
	movb	%al, 6(%r13)
	jmp	.LBB40_34
.LBB40_33:
	movb	6(%r13), %al
	orb	$1, %al
	movb	%al, 6(%r13)
	movq	16(%rsp), %rsi          # 8-byte Reload
.LBB40_34:
	andb	$124, %al
	leal	2(%rax), %edx
	testb	%sil, %sil
	movzbl	%al, %eax
	movzbl	%dl, %edx
	cmovnel	%eax, %edx
	movb	%dl, 6(%r13)
	movzwl	4(%r13), %r12d
	testq	%rcx, %rcx
	je	.LBB40_47
# %bb.35:
	movzwl	%r12w, %r14d
	movl	$24, %ebx
	xorl	%eax, %eax
	xorl	%ebp, %ebp
	jmp	.LBB40_37
	.p2align	4, 0x90
.LBB40_36:                              #   in Loop: Header=BB40_37 Depth=1
	addq	$1, %rbp
	addq	$32, %rbx
	cmpq	%rcx, %rbp
	jae	.LBB40_40
.LBB40_37:                              # =>This Inner Loop Header: Depth=1
	movq	8(%r13), %rdx
	movzwl	-8(%rdx,%rbx), %esi
	cmpw	%si, %r12w
	jb	.LBB40_36
# %bb.38:                               #   in Loop: Header=BB40_37 Depth=1
	movzwl	-6(%rdx,%rbx), %edi
	addl	%esi, %edi
	cmpl	%r14d, %edi
	jbe	.LBB40_36
# %bb.39:                               #   in Loop: Header=BB40_37 Depth=1
	movq	(%rdx,%rbx), %rdi
	movl	%r12d, %eax
	subl	%esi, %eax
	movzwl	%ax, %esi
	callq	*-24(%rdx,%rbx)
                                        # kill: def $al killed $al def $rax
	movq	16(%r13), %rcx
	jmp	.LBB40_36
.LBB40_40:
	movzbl	%al, %r14d
	movl	4(%r13), %r12d
	testq	%rcx, %rcx
	je	.LBB40_48
# %bb.41:
	addl	$1, %r12d
	movzwl	%r12w, %r15d
	movl	$24, %ebx
	xorl	%eax, %eax
	xorl	%ebp, %ebp
	jmp	.LBB40_43
	.p2align	4, 0x90
.LBB40_42:                              #   in Loop: Header=BB40_43 Depth=1
	addq	$1, %rbp
	addq	$32, %rbx
	cmpq	%rcx, %rbp
	jae	.LBB40_46
.LBB40_43:                              # =>This Inner Loop Header: Depth=1
	movq	8(%r13), %rdx
	movzwl	-8(%rdx,%rbx), %esi
	cmpw	%si, %r12w
	jb	.LBB40_42
# %bb.44:                               #   in Loop: Header=BB40_43 Depth=1
	movzwl	-6(%rdx,%rbx), %edi
	addl	%esi, %edi
	cmpl	%r15d, %edi
	jbe	.LBB40_42
# %bb.45:                               #   in Loop: Header=BB40_43 Depth=1
	movq	(%rdx,%rbx), %rdi
	movl	%r12d, %eax
	subl	%esi, %eax
	movzwl	%ax, %esi
	callq	*-24(%rdx,%rbx)
                                        # kill: def $al killed $al def $rax
	movq	16(%r13), %rcx
	jmp	.LBB40_42
.LBB40_46:
	movzwl	4(%r13), %r12d
	jmp	.LBB40_50
.LBB40_47:
	xorl	%ecx, %ecx
	xorl	%r14d, %r14d
	jmp	.LBB40_49
.LBB40_48:
	xorl	%ecx, %ecx
.LBB40_49:
	xorl	%eax, %eax
.LBB40_50:
	movzbl	1(%r13), %edx
	addl	$2, %r12d
	movw	%r12w, 4(%r13)
	testq	%rcx, %rcx
	je	.LBB40_56
# %bb.51:
	movzbl	%al, %eax
	shll	$8, %eax
	movzwl	%r14w, %r15d
	orl	%eax, %r15d
	addl	%edx, %r15d
	movzwl	%r15w, %r14d
	movl	$24, %ebx
	xorl	%eax, %eax
	xorl	%ebp, %ebp
	jmp	.LBB40_53
	.p2align	4, 0x90
.LBB40_52:                              #   in Loop: Header=BB40_53 Depth=1
	addq	$1, %rbp
	addq	$32, %rbx
	cmpq	%rcx, %rbp
	jae	.LBB40_57
.LBB40_53:                              # =>This Inner Loop Header: Depth=1
	movq	8(%r13), %rdx
	movzwl	-8(%rdx,%rbx), %esi
	cmpw	%si, %r15w
	jb	.LBB40_52
# %bb.54:                               #   in Loop: Header=BB40_53 Depth=1
	movzwl	-6(%rdx,%rbx), %edi
	addl	%esi, %edi
	cmpl	%r14d, %edi
	jbe	.LBB40_52
# %bb.55:                               #   in Loop: Header=BB40_53 Depth=1
	movq	(%rdx,%rbx), %rdi
	movl	%r15d, %eax
	subl	%esi, %eax
	movzwl	%ax, %esi
	callq	*-24(%rdx,%rbx)
                                        # kill: def $al killed $al def $rax
	movq	16(%r13), %rcx
	jmp	.LBB40_52
.LBB40_56:
	xorl	%eax, %eax
.LBB40_57:
	xorb	(%r13), %al
	movb	%al, (%r13)
	movb	6(%r13), %cl
	js	.LBB40_60
# %bb.58:
	andb	$127, %cl
	movb	%cl, 6(%r13)
	testb	%al, %al
	jne	.LBB40_61
# %bb.59:
	orb	$2, %cl
	jmp	.LBB40_62
.LBB40_60:
	orb	$-128, %cl
	movb	%cl, 6(%r13)
.LBB40_61:
	andb	$-3, %cl
.LBB40_62:
	movb	%cl, 6(%r13)
	movl	$7, %eax
	addq	$24, %rsp
	.cfi_def_cfa_offset 56
	popq	%rbx
	.cfi_def_cfa_offset 48
	popq	%r12
	.cfi_def_cfa_offset 40
	popq	%r13
	.cfi_def_cfa_offset 32
	popq	%r14
	.cfi_def_cfa_offset 24
	popq	%r15
	.cfi_def_cfa_offset 16
	popq	%rbp
	.cfi_def_cfa_offset 8
	retq
.Lfunc_end40:
	.size	SRE_absx, .Lfunc_end40-SRE_absx
	.cfi_endproc
                                        # -- End function
	.globl	SRE_absy                # -- Begin function SRE_absy
	.p2align	4, 0x90
	.type	SRE_absy,@function
SRE_absy:                               # @SRE_absy
	.cfi_startproc
# %bb.0:
	pushq	%rbp
	.cfi_def_cfa_offset 16
	pushq	%r15
	.cfi_def_cfa_offset 24
	pushq	%r14
	.cfi_def_cfa_offset 32
	pushq	%r13
	.cfi_def_cfa_offset 40
	pushq	%r12
	.cfi_def_cfa_offset 48
	pushq	%rbx
	.cfi_def_cfa_offset 56
	subq	$24, %rsp
	.cfi_def_cfa_offset 80
	.cfi_offset %rbx, -56
	.cfi_offset %r12, -48
	.cfi_offset %r13, -40
	.cfi_offset %r14, -32
	.cfi_offset %r15, -24
	.cfi_offset %rbp, -16
	movq	%rdi, %r13
	movzwl	4(%rdi), %r12d
	movq	16(%rdi), %rcx
	testq	%rcx, %rcx
	je	.LBB41_13
# %bb.1:
	movzwl	%r12w, %r14d
	movl	$24, %ebx
	xorl	%eax, %eax
	xorl	%ebp, %ebp
	jmp	.LBB41_3
	.p2align	4, 0x90
.LBB41_2:                               #   in Loop: Header=BB41_3 Depth=1
	addq	$1, %rbp
	addq	$32, %rbx
	cmpq	%rcx, %rbp
	jae	.LBB41_6
.LBB41_3:                               # =>This Inner Loop Header: Depth=1
	movq	8(%r13), %rdx
	movzwl	-8(%rdx,%rbx), %esi
	cmpw	%si, %r12w
	jb	.LBB41_2
# %bb.4:                                #   in Loop: Header=BB41_3 Depth=1
	movzwl	-6(%rdx,%rbx), %edi
	addl	%esi, %edi
	cmpl	%r14d, %edi
	jbe	.LBB41_2
# %bb.5:                                #   in Loop: Header=BB41_3 Depth=1
	movq	(%rdx,%rbx), %rdi
	movl	%r12d, %eax
	subl	%esi, %eax
	movzwl	%ax, %esi
	callq	*-24(%rdx,%rbx)
                                        # kill: def $al killed $al def $rax
	movq	16(%r13), %rcx
	jmp	.LBB41_2
.LBB41_6:
	movzbl	%al, %r14d
	movl	4(%r13), %r12d
	testq	%rcx, %rcx
	je	.LBB41_14
# %bb.7:
	addl	$1, %r12d
	movzwl	%r12w, %r15d
	movl	$24, %ebx
	xorl	%eax, %eax
	xorl	%ebp, %ebp
	jmp	.LBB41_9
	.p2align	4, 0x90
.LBB41_8:                               #   in Loop: Header=BB41_9 Depth=1
	addq	$1, %rbp
	addq	$32, %rbx
	cmpq	%rcx, %rbp
	jae	.LBB41_12
.LBB41_9:                               # =>This Inner Loop Header: Depth=1
	movq	8(%r13), %rdx
	movzwl	-8(%rdx,%rbx), %esi
	cmpw	%si, %r12w
	jb	.LBB41_8
# %bb.10:                               #   in Loop: Header=BB41_9 Depth=1
	movzwl	-6(%rdx,%rbx), %edi
	addl	%esi, %edi
	cmpl	%r15d, %edi
	jbe	.LBB41_8
# %bb.11:                               #   in Loop: Header=BB41_9 Depth=1
	movq	(%rdx,%rbx), %rdi
	movl	%r12d, %eax
	subl	%esi, %eax
	movzwl	%ax, %esi
	callq	*-24(%rdx,%rbx)
                                        # kill: def $al killed $al def $rax
	movq	16(%r13), %rcx
	jmp	.LBB41_8
.LBB41_12:
	movzwl	4(%r13), %r12d
	jmp	.LBB41_16
.LBB41_13:
	xorl	%ecx, %ecx
	xorl	%r14d, %r14d
	jmp	.LBB41_15
.LBB41_14:
	xorl	%ecx, %ecx
.LBB41_15:
	xorl	%eax, %eax
.LBB41_16:
	movzbl	2(%r13), %edx
	addl	$2, %r12d
	movw	%r12w, 4(%r13)
	testq	%rcx, %rcx
	je	.LBB41_28
# %bb.17:
	movzbl	%al, %eax
	shll	$8, %eax
	movzwl	%r14w, %r15d
	orl	%eax, %r15d
	addl	%edx, %r15d
	movzwl	%r15w, %r12d
	movl	$24, %ebx
	xorl	%r14d, %r14d
	xorl	%ebp, %ebp
	jmp	.LBB41_19
	.p2align	4, 0x90
.LBB41_18:                              #   in Loop: Header=BB41_19 Depth=1
	addq	$1, %rbp
	addq	$32, %rbx
	cmpq	%rcx, %rbp
	jae	.LBB41_22
.LBB41_19:                              # =>This Inner Loop Header: Depth=1
	movq	8(%r13), %rdx
	movzwl	-8(%rdx,%rbx), %eax
	cmpw	%ax, %r15w
	jb	.LBB41_18
# %bb.20:                               #   in Loop: Header=BB41_19 Depth=1
	movzwl	-6(%rdx,%rbx), %esi
	addl	%eax, %esi
	cmpl	%r12d, %esi
	jbe	.LBB41_18
# %bb.21:                               #   in Loop: Header=BB41_19 Depth=1
	movq	(%rdx,%rbx), %rdi
	movl	%r15d, %ecx
	subl	%eax, %ecx
	movzwl	%cx, %esi
	callq	*-24(%rdx,%rbx)
	movl	%eax, %r14d
	movq	16(%r13), %rcx
	jmp	.LBB41_18
.LBB41_22:
	movl	%r14d, %eax
	shrb	%al
	testq	%rcx, %rcx
	movq	%rax, 16(%rsp)          # 8-byte Spill
	je	.LBB41_29
# %bb.23:
	movl	$24, %ebx
	xorl	%ebp, %ebp
	movzbl	%al, %eax
	movl	%eax, 12(%rsp)          # 4-byte Spill
	jmp	.LBB41_25
	.p2align	4, 0x90
.LBB41_24:                              #   in Loop: Header=BB41_25 Depth=1
	addq	$1, %rbp
	addq	$32, %rbx
	cmpq	%rcx, %rbp
	jae	.LBB41_30
.LBB41_25:                              # =>This Inner Loop Header: Depth=1
	movq	8(%r13), %rax
	movzwl	-8(%rax,%rbx), %edx
	cmpw	%dx, %r15w
	jb	.LBB41_24
# %bb.26:                               #   in Loop: Header=BB41_25 Depth=1
	movzwl	-6(%rax,%rbx), %esi
	addl	%edx, %esi
	cmpl	%r12d, %esi
	jbe	.LBB41_24
# %bb.27:                               #   in Loop: Header=BB41_25 Depth=1
	movq	(%rax,%rbx), %rdi
	movl	%r15d, %ecx
	subl	%edx, %ecx
	movzwl	%cx, %esi
	movl	12(%rsp), %edx          # 4-byte Reload
	callq	*-16(%rax,%rbx)
	movq	16(%r13), %rcx
	jmp	.LBB41_24
.LBB41_28:
	xorl	%ecx, %ecx
	xorl	%esi, %esi
	jmp	.LBB41_32
.LBB41_29:
	xorl	%ecx, %ecx
.LBB41_30:
	testb	$1, %r14b
	jne	.LBB41_33
# %bb.31:
	movq	16(%rsp), %rsi          # 8-byte Reload
.LBB41_32:
	movb	6(%r13), %al
	andb	$-2, %al
	movb	%al, 6(%r13)
	jmp	.LBB41_34
.LBB41_33:
	movb	6(%r13), %al
	orb	$1, %al
	movb	%al, 6(%r13)
	movq	16(%rsp), %rsi          # 8-byte Reload
.LBB41_34:
	andb	$124, %al
	leal	2(%rax), %edx
	testb	%sil, %sil
	movzbl	%al, %eax
	movzbl	%dl, %edx
	cmovnel	%eax, %edx
	movb	%dl, 6(%r13)
	movzwl	4(%r13), %r12d
	testq	%rcx, %rcx
	je	.LBB41_47
# %bb.35:
	movzwl	%r12w, %r14d
	movl	$24, %ebx
	xorl	%eax, %eax
	xorl	%ebp, %ebp
	jmp	.LBB41_37
	.p2align	4, 0x90
.LBB41_36:                              #   in Loop: Header=BB41_37 Depth=1
	addq	$1, %rbp
	addq	$32, %rbx
	cmpq	%rcx, %rbp
	jae	.LBB41_40
.LBB41_37:                              # =>This Inner Loop Header: Depth=1
	movq	8(%r13), %rdx
	movzwl	-8(%rdx,%rbx), %esi
	cmpw	%si, %r12w
	jb	.LBB41_36
# %bb.38:                               #   in Loop: Header=BB41_37 Depth=1
	movzwl	-6(%rdx,%rbx), %edi
	addl	%esi, %edi
	cmpl	%r14d, %edi
	jbe	.LBB41_36
# %bb.39:                               #   in Loop: Header=BB41_37 Depth=1
	movq	(%rdx,%rbx), %rdi
	movl	%r12d, %eax
	subl	%esi, %eax
	movzwl	%ax, %esi
	callq	*-24(%rdx,%rbx)
                                        # kill: def $al killed $al def $rax
	movq	16(%r13), %rcx
	jmp	.LBB41_36
.LBB41_40:
	movzbl	%al, %r14d
	movl	4(%r13), %r12d
	testq	%rcx, %rcx
	je	.LBB41_48
# %bb.41:
	addl	$1, %r12d
	movzwl	%r12w, %r15d
	movl	$24, %ebx
	xorl	%eax, %eax
	xorl	%ebp, %ebp
	jmp	.LBB41_43
	.p2align	4, 0x90
.LBB41_42:                              #   in Loop: Header=BB41_43 Depth=1
	addq	$1, %rbp
	addq	$32, %rbx
	cmpq	%rcx, %rbp
	jae	.LBB41_46
.LBB41_43:                              # =>This Inner Loop Header: Depth=1
	movq	8(%r13), %rdx
	movzwl	-8(%rdx,%rbx), %esi
	cmpw	%si, %r12w
	jb	.LBB41_42
# %bb.44:                               #   in Loop: Header=BB41_43 Depth=1
	movzwl	-6(%rdx,%rbx), %edi
	addl	%esi, %edi
	cmpl	%r15d, %edi
	jbe	.LBB41_42
# %bb.45:                               #   in Loop: Header=BB41_43 Depth=1
	movq	(%rdx,%rbx), %rdi
	movl	%r12d, %eax
	subl	%esi, %eax
	movzwl	%ax, %esi
	callq	*-24(%rdx,%rbx)
                                        # kill: def $al killed $al def $rax
	movq	16(%r13), %rcx
	jmp	.LBB41_42
.LBB41_46:
	movzwl	4(%r13), %r12d
	jmp	.LBB41_50
.LBB41_47:
	xorl	%ecx, %ecx
	xorl	%r14d, %r14d
	jmp	.LBB41_49
.LBB41_48:
	xorl	%ecx, %ecx
.LBB41_49:
	xorl	%eax, %eax
.LBB41_50:
	movzbl	2(%r13), %edx
	addl	$2, %r12d
	movw	%r12w, 4(%r13)
	testq	%rcx, %rcx
	je	.LBB41_56
# %bb.51:
	movzbl	%al, %eax
	shll	$8, %eax
	movzwl	%r14w, %r15d
	orl	%eax, %r15d
	addl	%edx, %r15d
	movzwl	%r15w, %r14d
	movl	$24, %ebx
	xorl	%eax, %eax
	xorl	%ebp, %ebp
	jmp	.LBB41_53
	.p2align	4, 0x90
.LBB41_52:                              #   in Loop: Header=BB41_53 Depth=1
	addq	$1, %rbp
	addq	$32, %rbx
	cmpq	%rcx, %rbp
	jae	.LBB41_57
.LBB41_53:                              # =>This Inner Loop Header: Depth=1
	movq	8(%r13), %rdx
	movzwl	-8(%rdx,%rbx), %esi
	cmpw	%si, %r15w
	jb	.LBB41_52
# %bb.54:                               #   in Loop: Header=BB41_53 Depth=1
	movzwl	-6(%rdx,%rbx), %edi
	addl	%esi, %edi
	cmpl	%r14d, %edi
	jbe	.LBB41_52
# %bb.55:                               #   in Loop: Header=BB41_53 Depth=1
	movq	(%rdx,%rbx), %rdi
	movl	%r15d, %eax
	subl	%esi, %eax
	movzwl	%ax, %esi
	callq	*-24(%rdx,%rbx)
                                        # kill: def $al killed $al def $rax
	movq	16(%r13), %rcx
	jmp	.LBB41_52
.LBB41_56:
	xorl	%eax, %eax
.LBB41_57:
	xorb	(%r13), %al
	movb	%al, (%r13)
	movb	6(%r13), %cl
	js	.LBB41_60
# %bb.58:
	andb	$127, %cl
	movb	%cl, 6(%r13)
	testb	%al, %al
	jne	.LBB41_61
# %bb.59:
	orb	$2, %cl
	jmp	.LBB41_62
.LBB41_60:
	orb	$-128, %cl
	movb	%cl, 6(%r13)
.LBB41_61:
	andb	$-3, %cl
.LBB41_62:
	movb	%cl, 6(%r13)
	movl	$7, %eax
	addq	$24, %rsp
	.cfi_def_cfa_offset 56
	popq	%rbx
	.cfi_def_cfa_offset 48
	popq	%r12
	.cfi_def_cfa_offset 40
	popq	%r13
	.cfi_def_cfa_offset 32
	popq	%r14
	.cfi_def_cfa_offset 24
	popq	%r15
	.cfi_def_cfa_offset 16
	popq	%rbp
	.cfi_def_cfa_offset 8
	retq
.Lfunc_end41:
	.size	SRE_absy, .Lfunc_end41-SRE_absy
	.cfi_endproc
                                        # -- End function
	.globl	SRE_xind                # -- Begin function SRE_xind
	.p2align	4, 0x90
	.type	SRE_xind,@function
SRE_xind:                               # @SRE_xind
	.cfi_startproc
# %bb.0:
	pushq	%rbp
	.cfi_def_cfa_offset 16
	pushq	%r15
	.cfi_def_cfa_offset 24
	pushq	%r14
	.cfi_def_cfa_offset 32
	pushq	%r13
	.cfi_def_cfa_offset 40
	pushq	%r12
	.cfi_def_cfa_offset 48
	pushq	%rbx
	.cfi_def_cfa_offset 56
	pushq	%rax
	.cfi_def_cfa_offset 64
	.cfi_offset %rbx, -56
	.cfi_offset %r12, -48
	.cfi_offset %r13, -40
	.cfi_offset %r14, -32
	.cfi_offset %r15, -24
	.cfi_offset %rbp, -16
	movq	%rdi, %r12
	callq	xind
	movl	%eax, %r13d
	movq	16(%r12), %rax
	testq	%rax, %rax
	je	.LBB42_1
# %bb.2:
	movzwl	%r13w, %r15d
	movl	$24, %ebp
	xorl	%r14d, %r14d
	xorl	%ebx, %ebx
	jmp	.LBB42_3
	.p2align	4, 0x90
.LBB42_6:                               #   in Loop: Header=BB42_3 Depth=1
	addq	$1, %rbx
	addq	$32, %rbp
	cmpq	%rax, %rbx
	jae	.LBB42_7
.LBB42_3:                               # =>This Inner Loop Header: Depth=1
	movq	8(%r12), %rcx
	movzwl	-8(%rcx,%rbp), %edx
	cmpw	%dx, %r13w
	jb	.LBB42_6
# %bb.4:                                #   in Loop: Header=BB42_3 Depth=1
	movzwl	-6(%rcx,%rbp), %esi
	addl	%edx, %esi
	cmpl	%r15d, %esi
	jbe	.LBB42_6
# %bb.5:                                #   in Loop: Header=BB42_3 Depth=1
	movq	(%rcx,%rbp), %rdi
	movl	%r15d, %eax
	subl	%edx, %eax
	movzwl	%ax, %esi
	callq	*-24(%rcx,%rbp)
	movl	%eax, %r14d
	movq	16(%r12), %rax
	jmp	.LBB42_6
.LBB42_7:
	movl	%r14d, %ecx
	shrb	%cl
	movl	%ecx, (%rsp)            # 4-byte Spill
	testq	%rax, %rax
	je	.LBB42_13
# %bb.8:
	movl	$24, %ebp
	xorl	%ebx, %ebx
	movzbl	(%rsp), %ecx            # 1-byte Folded Reload
	movl	%ecx, 4(%rsp)           # 4-byte Spill
	jmp	.LBB42_9
	.p2align	4, 0x90
.LBB42_12:                              #   in Loop: Header=BB42_9 Depth=1
	addq	$1, %rbx
	addq	$32, %rbp
	cmpq	%rax, %rbx
	jae	.LBB42_13
.LBB42_9:                               # =>This Inner Loop Header: Depth=1
	movq	8(%r12), %rcx
	movzwl	-8(%rcx,%rbp), %edx
	cmpw	%dx, %r13w
	jb	.LBB42_12
# %bb.10:                               #   in Loop: Header=BB42_9 Depth=1
	movzwl	-6(%rcx,%rbp), %esi
	addl	%edx, %esi
	cmpl	%r15d, %esi
	jbe	.LBB42_12
# %bb.11:                               #   in Loop: Header=BB42_9 Depth=1
	movq	(%rcx,%rbp), %rdi
	movl	%r13d, %eax
	subl	%edx, %eax
	movzwl	%ax, %esi
	movl	4(%rsp), %edx           # 4-byte Reload
	callq	*-16(%rcx,%rbp)
	movq	16(%r12), %rax
	jmp	.LBB42_12
.LBB42_13:
	testb	$1, %r14b
	jne	.LBB42_29
# %bb.14:
	movl	(%rsp), %edx            # 4-byte Reload
	jmp	.LBB42_15
.LBB42_1:
	xorl	%edx, %edx
.LBB42_15:
	movb	6(%r12), %al
	andb	$-2, %al
	movb	%al, 6(%r12)
	jmp	.LBB42_16
.LBB42_29:
	movb	6(%r12), %al
	orb	$1, %al
	movb	%al, 6(%r12)
	movl	(%rsp), %edx            # 4-byte Reload
.LBB42_16:
	andb	$124, %al
	leal	2(%rax), %ecx
	testb	%dl, %dl
	movzbl	%al, %eax
	movzbl	%cl, %ecx
	cmovnel	%eax, %ecx
	movb	%cl, 6(%r12)
	movq	%r12, %rdi
	callq	xind
	movq	16(%r12), %rcx
	testq	%rcx, %rcx
	je	.LBB42_17
# %bb.18:
	movl	%eax, %r15d
	movzwl	%ax, %r14d
	movl	$24, %ebp
	xorl	%eax, %eax
	xorl	%ebx, %ebx
	jmp	.LBB42_19
	.p2align	4, 0x90
.LBB42_22:                              #   in Loop: Header=BB42_19 Depth=1
	addq	$1, %rbx
	addq	$32, %rbp
	cmpq	%rcx, %rbx
	jae	.LBB42_23
.LBB42_19:                              # =>This Inner Loop Header: Depth=1
	movq	8(%r12), %rdx
	movzwl	-8(%rdx,%rbp), %esi
	cmpw	%si, %r15w
	jb	.LBB42_22
# %bb.20:                               #   in Loop: Header=BB42_19 Depth=1
	movzwl	-6(%rdx,%rbp), %edi
	addl	%esi, %edi
	cmpl	%r14d, %edi
	jbe	.LBB42_22
# %bb.21:                               #   in Loop: Header=BB42_19 Depth=1
	movq	(%rdx,%rbp), %rdi
	movl	%r14d, %eax
	subl	%esi, %eax
	movzwl	%ax, %esi
	callq	*-24(%rdx,%rbp)
                                        # kill: def $al killed $al def $rax
	movq	16(%r12), %rcx
	jmp	.LBB42_22
.LBB42_17:
	xorl	%eax, %eax
.LBB42_23:
	xorb	(%r12), %al
	movb	%al, (%r12)
	movb	6(%r12), %cl
	js	.LBB42_24
# %bb.26:
	andb	$127, %cl
	movb	%cl, 6(%r12)
	testb	%al, %al
	jne	.LBB42_25
# %bb.27:
	orb	$2, %cl
	jmp	.LBB42_28
.LBB42_24:
	orb	$-128, %cl
	movb	%cl, 6(%r12)
.LBB42_25:
	andb	$-3, %cl
.LBB42_28:
	movb	%cl, 6(%r12)
	movl	$8, %eax
	addq	$8, %rsp
	.cfi_def_cfa_offset 56
	popq	%rbx
	.cfi_def_cfa_offset 48
	popq	%r12
	.cfi_def_cfa_offset 40
	popq	%r13
	.cfi_def_cfa_offset 32
	popq	%r14
	.cfi_def_cfa_offset 24
	popq	%r15
	.cfi_def_cfa_offset 16
	popq	%rbp
	.cfi_def_cfa_offset 8
	retq
.Lfunc_end42:
	.size	SRE_xind, .Lfunc_end42-SRE_xind
	.cfi_endproc
                                        # -- End function
	.globl	SRE_indy                # -- Begin function SRE_indy
	.p2align	4, 0x90
	.type	SRE_indy,@function
SRE_indy:                               # @SRE_indy
	.cfi_startproc
# %bb.0:
	pushq	%rbp
	.cfi_def_cfa_offset 16
	pushq	%r15
	.cfi_def_cfa_offset 24
	pushq	%r14
	.cfi_def_cfa_offset 32
	pushq	%r13
	.cfi_def_cfa_offset 40
	pushq	%r12
	.cfi_def_cfa_offset 48
	pushq	%rbx
	.cfi_def_cfa_offset 56
	pushq	%rax
	.cfi_def_cfa_offset 64
	.cfi_offset %rbx, -56
	.cfi_offset %r12, -48
	.cfi_offset %r13, -40
	.cfi_offset %r14, -32
	.cfi_offset %r15, -24
	.cfi_offset %rbp, -16
	movq	%rdi, %r12
	callq	indy
	movl	%eax, %r13d
	movq	16(%r12), %rax
	testq	%rax, %rax
	je	.LBB43_1
# %bb.2:
	movzwl	%r13w, %r15d
	movl	$24, %ebp
	xorl	%r14d, %r14d
	xorl	%ebx, %ebx
	jmp	.LBB43_3
	.p2align	4, 0x90
.LBB43_6:                               #   in Loop: Header=BB43_3 Depth=1
	addq	$1, %rbx
	addq	$32, %rbp
	cmpq	%rax, %rbx
	jae	.LBB43_7
.LBB43_3:                               # =>This Inner Loop Header: Depth=1
	movq	8(%r12), %rcx
	movzwl	-8(%rcx,%rbp), %edx
	cmpw	%dx, %r13w
	jb	.LBB43_6
# %bb.4:                                #   in Loop: Header=BB43_3 Depth=1
	movzwl	-6(%rcx,%rbp), %esi
	addl	%edx, %esi
	cmpl	%r15d, %esi
	jbe	.LBB43_6
# %bb.5:                                #   in Loop: Header=BB43_3 Depth=1
	movq	(%rcx,%rbp), %rdi
	movl	%r15d, %eax
	subl	%edx, %eax
	movzwl	%ax, %esi
	callq	*-24(%rcx,%rbp)
	movl	%eax, %r14d
	movq	16(%r12), %rax
	jmp	.LBB43_6
.LBB43_7:
	movl	%r14d, %ecx
	shrb	%cl
	movl	%ecx, (%rsp)            # 4-byte Spill
	testq	%rax, %rax
	je	.LBB43_13
# %bb.8:
	movl	$24, %ebp
	xorl	%ebx, %ebx
	movzbl	(%rsp), %ecx            # 1-byte Folded Reload
	movl	%ecx, 4(%rsp)           # 4-byte Spill
	jmp	.LBB43_9
	.p2align	4, 0x90
.LBB43_12:                              #   in Loop: Header=BB43_9 Depth=1
	addq	$1, %rbx
	addq	$32, %rbp
	cmpq	%rax, %rbx
	jae	.LBB43_13
.LBB43_9:                               # =>This Inner Loop Header: Depth=1
	movq	8(%r12), %rcx
	movzwl	-8(%rcx,%rbp), %edx
	cmpw	%dx, %r13w
	jb	.LBB43_12
# %bb.10:                               #   in Loop: Header=BB43_9 Depth=1
	movzwl	-6(%rcx,%rbp), %esi
	addl	%edx, %esi
	cmpl	%r15d, %esi
	jbe	.LBB43_12
# %bb.11:                               #   in Loop: Header=BB43_9 Depth=1
	movq	(%rcx,%rbp), %rdi
	movl	%r13d, %eax
	subl	%edx, %eax
	movzwl	%ax, %esi
	movl	4(%rsp), %edx           # 4-byte Reload
	callq	*-16(%rcx,%rbp)
	movq	16(%r12), %rax
	jmp	.LBB43_12
.LBB43_13:
	testb	$1, %r14b
	jne	.LBB43_29
# %bb.14:
	movl	(%rsp), %edx            # 4-byte Reload
	jmp	.LBB43_15
.LBB43_1:
	xorl	%edx, %edx
.LBB43_15:
	movb	6(%r12), %al
	andb	$-2, %al
	movb	%al, 6(%r12)
	jmp	.LBB43_16
.LBB43_29:
	movb	6(%r12), %al
	orb	$1, %al
	movb	%al, 6(%r12)
	movl	(%rsp), %edx            # 4-byte Reload
.LBB43_16:
	andb	$124, %al
	leal	2(%rax), %ecx
	testb	%dl, %dl
	movzbl	%al, %eax
	movzbl	%cl, %ecx
	cmovnel	%eax, %ecx
	movb	%cl, 6(%r12)
	movq	%r12, %rdi
	callq	indy
	movq	16(%r12), %rcx
	testq	%rcx, %rcx
	je	.LBB43_17
# %bb.18:
	movl	%eax, %r15d
	movzwl	%ax, %r14d
	movl	$24, %ebp
	xorl	%eax, %eax
	xorl	%ebx, %ebx
	jmp	.LBB43_19
	.p2align	4, 0x90
.LBB43_22:                              #   in Loop: Header=BB43_19 Depth=1
	addq	$1, %rbx
	addq	$32, %rbp
	cmpq	%rcx, %rbx
	jae	.LBB43_23
.LBB43_19:                              # =>This Inner Loop Header: Depth=1
	movq	8(%r12), %rdx
	movzwl	-8(%rdx,%rbp), %esi
	cmpw	%si, %r15w
	jb	.LBB43_22
# %bb.20:                               #   in Loop: Header=BB43_19 Depth=1
	movzwl	-6(%rdx,%rbp), %edi
	addl	%esi, %edi
	cmpl	%r14d, %edi
	jbe	.LBB43_22
# %bb.21:                               #   in Loop: Header=BB43_19 Depth=1
	movq	(%rdx,%rbp), %rdi
	movl	%r14d, %eax
	subl	%esi, %eax
	movzwl	%ax, %esi
	callq	*-24(%rdx,%rbp)
                                        # kill: def $al killed $al def $rax
	movq	16(%r12), %rcx
	jmp	.LBB43_22
.LBB43_17:
	xorl	%eax, %eax
.LBB43_23:
	xorb	(%r12), %al
	movb	%al, (%r12)
	movb	6(%r12), %cl
	js	.LBB43_24
# %bb.26:
	andb	$127, %cl
	movb	%cl, 6(%r12)
	testb	%al, %al
	jne	.LBB43_25
# %bb.27:
	orb	$2, %cl
	jmp	.LBB43_28
.LBB43_24:
	orb	$-128, %cl
	movb	%cl, 6(%r12)
.LBB43_25:
	andb	$-3, %cl
.LBB43_28:
	movb	%cl, 6(%r12)
	movl	$8, %eax
	addq	$8, %rsp
	.cfi_def_cfa_offset 56
	popq	%rbx
	.cfi_def_cfa_offset 48
	popq	%r12
	.cfi_def_cfa_offset 40
	popq	%r13
	.cfi_def_cfa_offset 32
	popq	%r14
	.cfi_def_cfa_offset 24
	popq	%r15
	.cfi_def_cfa_offset 16
	popq	%rbp
	.cfi_def_cfa_offset 8
	retq
.Lfunc_end43:
	.size	SRE_indy, .Lfunc_end43-SRE_indy
	.cfi_endproc
                                        # -- End function
	.globl	JSR                     # -- Begin function JSR
	.p2align	4, 0x90
	.type	JSR,@function
JSR:                                    # @JSR
	.cfi_startproc
# %bb.0:
	pushq	%rbp
	.cfi_def_cfa_offset 16
	pushq	%r15
	.cfi_def_cfa_offset 24
	pushq	%r14
	.cfi_def_cfa_offset 32
	pushq	%r13
	.cfi_def_cfa_offset 40
	pushq	%r12
	.cfi_def_cfa_offset 48
	pushq	%rbx
	.cfi_def_cfa_offset 56
	pushq	%rax
	.cfi_def_cfa_offset 64
	.cfi_offset %rbx, -56
	.cfi_offset %r12, -48
	.cfi_offset %r13, -40
	.cfi_offset %r14, -32
	.cfi_offset %r15, -24
	.cfi_offset %rbp, -16
	movq	%rdi, %r13
	movzwl	4(%rdi), %r15d
	movq	16(%rdi), %rcx
	testq	%rcx, %rcx
	je	.LBB44_13
# %bb.1:
	movzwl	%r15w, %r14d
	movl	$24, %ebp
	xorl	%eax, %eax
	xorl	%ebx, %ebx
	jmp	.LBB44_3
	.p2align	4, 0x90
.LBB44_2:                               #   in Loop: Header=BB44_3 Depth=1
	addq	$1, %rbx
	addq	$32, %rbp
	cmpq	%rcx, %rbx
	jae	.LBB44_6
.LBB44_3:                               # =>This Inner Loop Header: Depth=1
	movq	8(%r13), %rdx
	movzwl	-8(%rdx,%rbp), %esi
	cmpw	%si, %r15w
	jb	.LBB44_2
# %bb.4:                                #   in Loop: Header=BB44_3 Depth=1
	movzwl	-6(%rdx,%rbp), %edi
	addl	%esi, %edi
	cmpl	%r14d, %edi
	jbe	.LBB44_2
# %bb.5:                                #   in Loop: Header=BB44_3 Depth=1
	movq	(%rdx,%rbp), %rdi
	movl	%r15d, %eax
	subl	%esi, %eax
	movzwl	%ax, %esi
	callq	*-24(%rdx,%rbp)
                                        # kill: def $al killed $al def $rax
	movq	16(%r13), %rcx
	jmp	.LBB44_2
.LBB44_6:
	movzbl	%al, %r14d
	movl	4(%r13), %r15d
	testq	%rcx, %rcx
	je	.LBB44_14
# %bb.7:
	addl	$1, %r15d
	movzwl	%r15w, %r12d
	movl	$24, %ebp
	xorl	%eax, %eax
	xorl	%ebx, %ebx
	jmp	.LBB44_9
	.p2align	4, 0x90
.LBB44_8:                               #   in Loop: Header=BB44_9 Depth=1
	addq	$1, %rbx
	addq	$32, %rbp
	cmpq	%rcx, %rbx
	jae	.LBB44_12
.LBB44_9:                               # =>This Inner Loop Header: Depth=1
	movq	8(%r13), %rdx
	movzwl	-8(%rdx,%rbp), %esi
	cmpw	%si, %r15w
	jb	.LBB44_8
# %bb.10:                               #   in Loop: Header=BB44_9 Depth=1
	movzwl	-6(%rdx,%rbp), %edi
	addl	%esi, %edi
	cmpl	%r12d, %edi
	jbe	.LBB44_8
# %bb.11:                               #   in Loop: Header=BB44_9 Depth=1
	movq	(%rdx,%rbp), %rdi
	movl	%r15d, %eax
	subl	%esi, %eax
	movzwl	%ax, %esi
	callq	*-24(%rdx,%rbp)
                                        # kill: def $al killed $al def $rax
	movq	16(%r13), %rcx
	jmp	.LBB44_8
.LBB44_12:
	movzwl	4(%r13), %r15d
	jmp	.LBB44_16
.LBB44_13:
	xorl	%ecx, %ecx
	xorl	%r14d, %r14d
	jmp	.LBB44_15
.LBB44_14:
	xorl	%ecx, %ecx
.LBB44_15:
	xorl	%eax, %eax
.LBB44_16:
	movzbl	%al, %eax
	shll	$8, %eax
	movzwl	%r14w, %r14d
	orl	%eax, %r14d
	addl	$1, %r15d
	movw	%r15w, 4(%r13)
	movzbl	3(%r13), %r12d
	leal	-1(%r12), %eax
	movb	%al, 3(%r13)
	testq	%rcx, %rcx
	je	.LBB44_28
# %bb.17:
	shrl	$8, %r15d
	orl	$256, %r12d             # imm = 0x100
	movl	$24, %ebx
	xorl	%ebp, %ebp
	jmp	.LBB44_19
	.p2align	4, 0x90
.LBB44_18:                              #   in Loop: Header=BB44_19 Depth=1
	addq	$1, %rbp
	addq	$32, %rbx
	cmpq	%rcx, %rbp
	jae	.LBB44_22
.LBB44_19:                              # =>This Inner Loop Header: Depth=1
	movq	8(%r13), %rax
	movzwl	-8(%rax,%rbx), %edx
	cmpw	%dx, %r12w
	jb	.LBB44_18
# %bb.20:                               #   in Loop: Header=BB44_19 Depth=1
	movzwl	-6(%rax,%rbx), %esi
	addl	%edx, %esi
	cmpl	%r12d, %esi
	jbe	.LBB44_18
# %bb.21:                               #   in Loop: Header=BB44_19 Depth=1
	movq	(%rax,%rbx), %rdi
	movzwl	%r12w, %ecx
	subl	%edx, %ecx
	movzwl	%cx, %esi
	movzbl	%r15b, %edx
	callq	*-16(%rax,%rbx)
	movq	16(%r13), %rcx
	jmp	.LBB44_18
.LBB44_22:
	movb	4(%r13), %r15b
	movzbl	3(%r13), %r12d
	leal	-1(%r12), %eax
	movb	%al, 3(%r13)
	testq	%rcx, %rcx
	je	.LBB44_29
# %bb.23:
	orl	$256, %r12d             # imm = 0x100
	movl	$24, %ebx
	xorl	%ebp, %ebp
	jmp	.LBB44_25
	.p2align	4, 0x90
.LBB44_24:                              #   in Loop: Header=BB44_25 Depth=1
	addq	$1, %rbp
	addq	$32, %rbx
	cmpq	%rcx, %rbp
	jae	.LBB44_29
.LBB44_25:                              # =>This Inner Loop Header: Depth=1
	movq	8(%r13), %rax
	movzwl	-8(%rax,%rbx), %edx
	cmpw	%dx, %r12w
	jb	.LBB44_24
# %bb.26:                               #   in Loop: Header=BB44_25 Depth=1
	movzwl	-6(%rax,%rbx), %esi
	addl	%edx, %esi
	cmpl	%r12d, %esi
	jbe	.LBB44_24
# %bb.27:                               #   in Loop: Header=BB44_25 Depth=1
	movq	(%rax,%rbx), %rdi
	movzwl	%r12w, %ecx
	subl	%edx, %ecx
	movzwl	%cx, %esi
	movzbl	%r15b, %edx
	callq	*-16(%rax,%rbx)
	movq	16(%r13), %rcx
	jmp	.LBB44_24
.LBB44_28:
	leal	-2(%r12), %eax
	movb	%al, 3(%r13)
.LBB44_29:
	movw	%r14w, 4(%r13)
	movl	$6, %eax
	addq	$8, %rsp
	.cfi_def_cfa_offset 56
	popq	%rbx
	.cfi_def_cfa_offset 48
	popq	%r12
	.cfi_def_cfa_offset 40
	popq	%r13
	.cfi_def_cfa_offset 32
	popq	%r14
	.cfi_def_cfa_offset 24
	popq	%r15
	.cfi_def_cfa_offset 16
	popq	%rbp
	.cfi_def_cfa_offset 8
	retq
.Lfunc_end44:
	.size	JSR, .Lfunc_end44-JSR
	.cfi_endproc
                                        # -- End function
	.globl	BIT_zpg                 # -- Begin function BIT_zpg
	.p2align	4, 0x90
	.type	BIT_zpg,@function
BIT_zpg:                                # @BIT_zpg
	.cfi_startproc
# %bb.0:
	pushq	%rbp
	.cfi_def_cfa_offset 16
	pushq	%r15
	.cfi_def_cfa_offset 24
	pushq	%r14
	.cfi_def_cfa_offset 32
	pushq	%rbx
	.cfi_def_cfa_offset 40
	pushq	%rax
	.cfi_def_cfa_offset 48
	.cfi_offset %rbx, -40
	.cfi_offset %r14, -32
	.cfi_offset %r15, -24
	.cfi_offset %rbp, -16
	movq	%rdi, %r14
	movzwl	4(%rdi), %r15d
	movq	16(%rdi), %rcx
	testq	%rcx, %rcx
	je	.LBB45_12
# %bb.1:
	movl	$24, %ebx
	xorl	%eax, %eax
	xorl	%ebp, %ebp
	jmp	.LBB45_3
	.p2align	4, 0x90
.LBB45_2:                               #   in Loop: Header=BB45_3 Depth=1
	addq	$1, %rbp
	addq	$32, %rbx
	cmpq	%rcx, %rbp
	jae	.LBB45_6
.LBB45_3:                               # =>This Inner Loop Header: Depth=1
	movq	8(%r14), %rdx
	movzwl	-8(%rdx,%rbx), %esi
	cmpw	%si, %r15w
	jb	.LBB45_2
# %bb.4:                                #   in Loop: Header=BB45_3 Depth=1
	movzwl	-6(%rdx,%rbx), %edi
	addl	%esi, %edi
	cmpl	%r15d, %edi
	jbe	.LBB45_2
# %bb.5:                                #   in Loop: Header=BB45_3 Depth=1
	movq	(%rdx,%rbx), %rdi
	movl	%r15d, %eax
	subl	%esi, %eax
	movzwl	%ax, %esi
	callq	*-24(%rdx,%rbx)
                                        # kill: def $al killed $al def $rax
	movq	16(%r14), %rcx
	jmp	.LBB45_2
.LBB45_6:
	addw	$1, 4(%r14)
	testq	%rcx, %rcx
	je	.LBB45_13
# %bb.7:
	movzbl	%al, %r15d
	movl	$24, %ebx
	xorl	%eax, %eax
	xorl	%ebp, %ebp
	jmp	.LBB45_9
	.p2align	4, 0x90
.LBB45_8:                               #   in Loop: Header=BB45_9 Depth=1
	addq	$1, %rbp
	addq	$32, %rbx
	cmpq	%rcx, %rbp
	jae	.LBB45_14
.LBB45_9:                               # =>This Inner Loop Header: Depth=1
	movq	8(%r14), %rdx
	movzwl	-8(%rdx,%rbx), %esi
	cmpw	%r15w, %si
	ja	.LBB45_8
# %bb.10:                               #   in Loop: Header=BB45_9 Depth=1
	movzwl	-6(%rdx,%rbx), %edi
	addl	%esi, %edi
	cmpl	%r15d, %edi
	jbe	.LBB45_8
# %bb.11:                               #   in Loop: Header=BB45_9 Depth=1
	movq	(%rdx,%rbx), %rdi
	movzwl	%r15w, %eax
	subl	%esi, %eax
	movzwl	%ax, %esi
	callq	*-24(%rdx,%rbx)
                                        # kill: def $al killed $al def $rax
	movq	16(%r14), %rcx
	jmp	.LBB45_8
.LBB45_12:
	addl	$1, %r15d
	movw	%r15w, 4(%r14)
.LBB45_13:
	xorl	%eax, %eax
.LBB45_14:
	movb	(%r14), %cl
	andb	%al, %cl
	movb	6(%r14), %dl
	movl	%edx, %ebx
	andb	$61, %bl
	orb	$2, %dl
	testb	%cl, %cl
	movzbl	%dl, %ecx
	movzbl	%bl, %edx
	cmovel	%ecx, %edx
	andb	$63, %dl
	andb	$-64, %al
	orb	%dl, %al
	movb	%al, 6(%r14)
	movl	$3, %eax
	addq	$8, %rsp
	.cfi_def_cfa_offset 40
	popq	%rbx
	.cfi_def_cfa_offset 32
	popq	%r14
	.cfi_def_cfa_offset 24
	popq	%r15
	.cfi_def_cfa_offset 16
	popq	%rbp
	.cfi_def_cfa_offset 8
	retq
.Lfunc_end45:
	.size	BIT_zpg, .Lfunc_end45-BIT_zpg
	.cfi_endproc
                                        # -- End function
	.globl	BIT_abss                # -- Begin function BIT_abss
	.p2align	4, 0x90
	.type	BIT_abss,@function
BIT_abss:                               # @BIT_abss
	.cfi_startproc
# %bb.0:
	pushq	%rbp
	.cfi_def_cfa_offset 16
	pushq	%r15
	.cfi_def_cfa_offset 24
	pushq	%r14
	.cfi_def_cfa_offset 32
	pushq	%r13
	.cfi_def_cfa_offset 40
	pushq	%r12
	.cfi_def_cfa_offset 48
	pushq	%rbx
	.cfi_def_cfa_offset 56
	pushq	%rax
	.cfi_def_cfa_offset 64
	.cfi_offset %rbx, -56
	.cfi_offset %r12, -48
	.cfi_offset %r13, -40
	.cfi_offset %r14, -32
	.cfi_offset %r15, -24
	.cfi_offset %rbp, -16
	movq	%rdi, %r12
	movzwl	4(%rdi), %r13d
	movq	16(%rdi), %rcx
	testq	%rcx, %rcx
	je	.LBB46_12
# %bb.1:
	movzwl	%r13w, %r14d
	movl	$24, %ebx
	xorl	%eax, %eax
	xorl	%ebp, %ebp
	jmp	.LBB46_3
	.p2align	4, 0x90
.LBB46_2:                               #   in Loop: Header=BB46_3 Depth=1
	addq	$1, %rbp
	addq	$32, %rbx
	cmpq	%rcx, %rbp
	jae	.LBB46_6
.LBB46_3:                               # =>This Inner Loop Header: Depth=1
	movq	8(%r12), %rdx
	movzwl	-8(%rdx,%rbx), %esi
	cmpw	%si, %r13w
	jb	.LBB46_2
# %bb.4:                                #   in Loop: Header=BB46_3 Depth=1
	movzwl	-6(%rdx,%rbx), %edi
	addl	%esi, %edi
	cmpl	%r14d, %edi
	jbe	.LBB46_2
# %bb.5:                                #   in Loop: Header=BB46_3 Depth=1
	movq	(%rdx,%rbx), %rdi
	movl	%r13d, %eax
	subl	%esi, %eax
	movzwl	%ax, %esi
	callq	*-24(%rdx,%rbx)
                                        # kill: def $al killed $al def $rax
	movq	16(%r12), %rcx
	jmp	.LBB46_2
.LBB46_6:
	movl	4(%r12), %r13d
	testq	%rcx, %rcx
	je	.LBB46_12
# %bb.7:
	movzbl	%al, %r14d
	addl	$1, %r13d
	movzwl	%r13w, %r15d
	movl	$24, %ebx
	xorl	%eax, %eax
	xorl	%ebp, %ebp
	jmp	.LBB46_9
	.p2align	4, 0x90
.LBB46_8:                               #   in Loop: Header=BB46_9 Depth=1
	addq	$1, %rbp
	addq	$32, %rbx
	cmpq	%rcx, %rbp
	jae	.LBB46_13
.LBB46_9:                               # =>This Inner Loop Header: Depth=1
	movq	8(%r12), %rdx
	movzwl	-8(%rdx,%rbx), %esi
	cmpw	%si, %r13w
	jb	.LBB46_8
# %bb.10:                               #   in Loop: Header=BB46_9 Depth=1
	movzwl	-6(%rdx,%rbx), %edi
	addl	%esi, %edi
	cmpl	%r15d, %edi
	jbe	.LBB46_8
# %bb.11:                               #   in Loop: Header=BB46_9 Depth=1
	movq	(%rdx,%rbx), %rdi
	movl	%r13d, %eax
	subl	%esi, %eax
	movzwl	%ax, %esi
	callq	*-24(%rdx,%rbx)
                                        # kill: def $al killed $al def $rax
	movq	16(%r12), %rcx
	jmp	.LBB46_8
.LBB46_12:
	addl	$2, %r13d
	movw	%r13w, 4(%r12)
.LBB46_19:
	xorl	%eax, %eax
.LBB46_20:
	movb	(%r12), %cl
	andb	%al, %cl
	movb	6(%r12), %dl
	movl	%edx, %ebx
	andb	$61, %bl
	orb	$2, %dl
	testb	%cl, %cl
	movzbl	%dl, %ecx
	movzbl	%bl, %edx
	cmovel	%ecx, %edx
	andb	$63, %dl
	andb	$-64, %al
	orb	%dl, %al
	movb	%al, 6(%r12)
	movl	$4, %eax
	addq	$8, %rsp
	.cfi_def_cfa_offset 56
	popq	%rbx
	.cfi_def_cfa_offset 48
	popq	%r12
	.cfi_def_cfa_offset 40
	popq	%r13
	.cfi_def_cfa_offset 32
	popq	%r14
	.cfi_def_cfa_offset 24
	popq	%r15
	.cfi_def_cfa_offset 16
	popq	%rbp
	.cfi_def_cfa_offset 8
	retq
.LBB46_13:
	.cfi_def_cfa_offset 64
	addw	$2, 4(%r12)
	testq	%rcx, %rcx
	je	.LBB46_19
# %bb.14:
	movzbl	%al, %eax
	shll	$8, %eax
	movzwl	%r14w, %r15d
	orl	%eax, %r15d
	movzwl	%r15w, %r14d
	movl	$24, %ebp
	xorl	%eax, %eax
	xorl	%ebx, %ebx
	jmp	.LBB46_16
	.p2align	4, 0x90
.LBB46_15:                              #   in Loop: Header=BB46_16 Depth=1
	addq	$1, %rbx
	addq	$32, %rbp
	cmpq	%rcx, %rbx
	jae	.LBB46_20
.LBB46_16:                              # =>This Inner Loop Header: Depth=1
	movq	8(%r12), %rdx
	movzwl	-8(%rdx,%rbp), %esi
	cmpw	%si, %r15w
	jb	.LBB46_15
# %bb.17:                               #   in Loop: Header=BB46_16 Depth=1
	movzwl	-6(%rdx,%rbp), %edi
	addl	%esi, %edi
	cmpl	%r14d, %edi
	jbe	.LBB46_15
# %bb.18:                               #   in Loop: Header=BB46_16 Depth=1
	movq	(%rdx,%rbp), %rdi
	movl	%r15d, %eax
	subl	%esi, %eax
	movzwl	%ax, %esi
	callq	*-24(%rdx,%rbp)
                                        # kill: def $al killed $al def $rax
	movq	16(%r12), %rcx
	jmp	.LBB46_15
.Lfunc_end46:
	.size	BIT_abss, .Lfunc_end46-BIT_abss
	.cfi_endproc
                                        # -- End function
	.globl	AND_imm                 # -- Begin function AND_imm
	.p2align	4, 0x90
	.type	AND_imm,@function
AND_imm:                                # @AND_imm
	.cfi_startproc
# %bb.0:
	pushq	%rbp
	.cfi_def_cfa_offset 16
	pushq	%r15
	.cfi_def_cfa_offset 24
	pushq	%r14
	.cfi_def_cfa_offset 32
	pushq	%r12
	.cfi_def_cfa_offset 40
	pushq	%rbx
	.cfi_def_cfa_offset 48
	.cfi_offset %rbx, -48
	.cfi_offset %r12, -40
	.cfi_offset %r14, -32
	.cfi_offset %r15, -24
	.cfi_offset %rbp, -16
	movq	%rdi, %r15
	movb	(%rdi), %r14b
	movzwl	4(%rdi), %r12d
	leal	1(%r12), %eax
	movw	%ax, 4(%rdi)
	movq	16(%rdi), %rcx
	testq	%rcx, %rcx
	je	.LBB47_1
# %bb.2:
	movl	$24, %ebx
	xorl	%eax, %eax
	xorl	%ebp, %ebp
	jmp	.LBB47_3
	.p2align	4, 0x90
.LBB47_6:                               #   in Loop: Header=BB47_3 Depth=1
	addq	$1, %rbp
	addq	$32, %rbx
	cmpq	%rcx, %rbp
	jae	.LBB47_7
.LBB47_3:                               # =>This Inner Loop Header: Depth=1
	movq	8(%r15), %rdx
	movzwl	-8(%rdx,%rbx), %esi
	cmpw	%si, %r12w
	jb	.LBB47_6
# %bb.4:                                #   in Loop: Header=BB47_3 Depth=1
	movzwl	-6(%rdx,%rbx), %edi
	addl	%esi, %edi
	cmpl	%r12d, %edi
	jbe	.LBB47_6
# %bb.5:                                #   in Loop: Header=BB47_3 Depth=1
	movq	(%rdx,%rbx), %rdi
	movl	%r12d, %eax
	subl	%esi, %eax
	movzwl	%ax, %esi
	callq	*-24(%rdx,%rbx)
                                        # kill: def $al killed $al def $rax
	movq	16(%r15), %rcx
	jmp	.LBB47_6
.LBB47_1:
	xorl	%eax, %eax
.LBB47_7:
	andb	%r14b, %al
	movb	%al, (%r15)
	movb	6(%r15), %cl
	js	.LBB47_8
# %bb.10:
	andb	$127, %cl
	movb	%cl, 6(%r15)
	testb	%al, %al
	jne	.LBB47_9
# %bb.11:
	orb	$2, %cl
	jmp	.LBB47_12
.LBB47_8:
	orb	$-128, %cl
	movb	%cl, 6(%r15)
.LBB47_9:
	andb	$-3, %cl
.LBB47_12:
	movb	%cl, 6(%r15)
	movl	$2, %eax
	popq	%rbx
	.cfi_def_cfa_offset 40
	popq	%r12
	.cfi_def_cfa_offset 32
	popq	%r14
	.cfi_def_cfa_offset 24
	popq	%r15
	.cfi_def_cfa_offset 16
	popq	%rbp
	.cfi_def_cfa_offset 8
	retq
.Lfunc_end47:
	.size	AND_imm, .Lfunc_end47-AND_imm
	.cfi_endproc
                                        # -- End function
	.globl	AND_zpg                 # -- Begin function AND_zpg
	.p2align	4, 0x90
	.type	AND_zpg,@function
AND_zpg:                                # @AND_zpg
	.cfi_startproc
# %bb.0:
	pushq	%rbp
	.cfi_def_cfa_offset 16
	pushq	%r15
	.cfi_def_cfa_offset 24
	pushq	%r14
	.cfi_def_cfa_offset 32
	pushq	%r12
	.cfi_def_cfa_offset 40
	pushq	%rbx
	.cfi_def_cfa_offset 48
	.cfi_offset %rbx, -48
	.cfi_offset %r12, -40
	.cfi_offset %r14, -32
	.cfi_offset %r15, -24
	.cfi_offset %rbp, -16
	movq	%rdi, %r15
	movb	(%rdi), %r14b
	movzwl	4(%rdi), %r12d
	movq	16(%rdi), %rcx
	testq	%rcx, %rcx
	je	.LBB48_1
# %bb.2:
	movl	$24, %ebx
	xorl	%eax, %eax
	xorl	%ebp, %ebp
	jmp	.LBB48_3
	.p2align	4, 0x90
.LBB48_6:                               #   in Loop: Header=BB48_3 Depth=1
	addq	$1, %rbp
	addq	$32, %rbx
	cmpq	%rcx, %rbp
	jae	.LBB48_7
.LBB48_3:                               # =>This Inner Loop Header: Depth=1
	movq	8(%r15), %rdx
	movzwl	-8(%rdx,%rbx), %esi
	cmpw	%si, %r12w
	jb	.LBB48_6
# %bb.4:                                #   in Loop: Header=BB48_3 Depth=1
	movzwl	-6(%rdx,%rbx), %edi
	addl	%esi, %edi
	cmpl	%r12d, %edi
	jbe	.LBB48_6
# %bb.5:                                #   in Loop: Header=BB48_3 Depth=1
	movq	(%rdx,%rbx), %rdi
	movl	%r12d, %eax
	subl	%esi, %eax
	movzwl	%ax, %esi
	callq	*-24(%rdx,%rbx)
                                        # kill: def $al killed $al def $rax
	movq	16(%r15), %rcx
	jmp	.LBB48_6
.LBB48_7:
	addw	$1, 4(%r15)
	testq	%rcx, %rcx
	je	.LBB48_8
# %bb.9:
	movzbl	%al, %r12d
	movl	$24, %ebx
	xorl	%eax, %eax
	xorl	%ebp, %ebp
	jmp	.LBB48_10
	.p2align	4, 0x90
.LBB48_13:                              #   in Loop: Header=BB48_10 Depth=1
	addq	$1, %rbp
	addq	$32, %rbx
	cmpq	%rcx, %rbp
	jae	.LBB48_14
.LBB48_10:                              # =>This Inner Loop Header: Depth=1
	movq	8(%r15), %rdx
	movzwl	-8(%rdx,%rbx), %esi
	cmpw	%r12w, %si
	ja	.LBB48_13
# %bb.11:                               #   in Loop: Header=BB48_10 Depth=1
	movzwl	-6(%rdx,%rbx), %edi
	addl	%esi, %edi
	cmpl	%r12d, %edi
	jbe	.LBB48_13
# %bb.12:                               #   in Loop: Header=BB48_10 Depth=1
	movq	(%rdx,%rbx), %rdi
	movzwl	%r12w, %eax
	subl	%esi, %eax
	movzwl	%ax, %esi
	callq	*-24(%rdx,%rbx)
                                        # kill: def $al killed $al def $rax
	movq	16(%r15), %rcx
	jmp	.LBB48_13
.LBB48_1:
	addl	$1, %r12d
	movw	%r12w, 4(%r15)
	xorl	%eax, %eax
.LBB48_14:
	andb	%r14b, %al
	movb	%al, (%r15)
	movb	6(%r15), %cl
	js	.LBB48_15
.LBB48_17:
	andb	$127, %cl
	movb	%cl, 6(%r15)
	testb	%al, %al
	jne	.LBB48_16
# %bb.18:
	orb	$2, %cl
	jmp	.LBB48_19
.LBB48_8:
	xorl	%eax, %eax
	andb	%r14b, %al
	movb	%al, (%r15)
	movb	6(%r15), %cl
	jns	.LBB48_17
.LBB48_15:
	orb	$-128, %cl
	movb	%cl, 6(%r15)
.LBB48_16:
	andb	$-3, %cl
.LBB48_19:
	movb	%cl, 6(%r15)
	movl	$3, %eax
	popq	%rbx
	.cfi_def_cfa_offset 40
	popq	%r12
	.cfi_def_cfa_offset 32
	popq	%r14
	.cfi_def_cfa_offset 24
	popq	%r15
	.cfi_def_cfa_offset 16
	popq	%rbp
	.cfi_def_cfa_offset 8
	retq
.Lfunc_end48:
	.size	AND_zpg, .Lfunc_end48-AND_zpg
	.cfi_endproc
                                        # -- End function
	.globl	AND_zpgx                # -- Begin function AND_zpgx
	.p2align	4, 0x90
	.type	AND_zpgx,@function
AND_zpgx:                               # @AND_zpgx
	.cfi_startproc
# %bb.0:
	pushq	%rbp
	.cfi_def_cfa_offset 16
	pushq	%r15
	.cfi_def_cfa_offset 24
	pushq	%r14
	.cfi_def_cfa_offset 32
	pushq	%r13
	.cfi_def_cfa_offset 40
	pushq	%r12
	.cfi_def_cfa_offset 48
	pushq	%rbx
	.cfi_def_cfa_offset 56
	pushq	%rax
	.cfi_def_cfa_offset 64
	.cfi_offset %rbx, -56
	.cfi_offset %r12, -48
	.cfi_offset %r13, -40
	.cfi_offset %r14, -32
	.cfi_offset %r15, -24
	.cfi_offset %rbp, -16
	movq	%rdi, %r13
	movb	(%rdi), %r14b
	movzwl	4(%rdi), %r12d
	movq	16(%rdi), %rcx
	testq	%rcx, %rcx
	je	.LBB49_1
# %bb.2:
	movzwl	%r12w, %r15d
	movl	$24, %ebp
	xorl	%eax, %eax
	xorl	%ebx, %ebx
	jmp	.LBB49_3
	.p2align	4, 0x90
.LBB49_6:                               #   in Loop: Header=BB49_3 Depth=1
	addq	$1, %rbx
	addq	$32, %rbp
	cmpq	%rcx, %rbx
	jae	.LBB49_7
.LBB49_3:                               # =>This Inner Loop Header: Depth=1
	movq	8(%r13), %rdx
	movzwl	-8(%rdx,%rbp), %esi
	cmpw	%si, %r12w
	jb	.LBB49_6
# %bb.4:                                #   in Loop: Header=BB49_3 Depth=1
	movzwl	-6(%rdx,%rbp), %edi
	addl	%esi, %edi
	cmpl	%r15d, %edi
	jbe	.LBB49_6
# %bb.5:                                #   in Loop: Header=BB49_3 Depth=1
	movq	(%rdx,%rbp), %rdi
	movl	%r12d, %eax
	subl	%esi, %eax
	movzwl	%ax, %esi
	callq	*-24(%rdx,%rbp)
                                        # kill: def $al killed $al def $rax
	movq	16(%r13), %rcx
	jmp	.LBB49_6
.LBB49_7:
	movzwl	4(%r13), %r12d
	jmp	.LBB49_8
.LBB49_1:
	xorl	%ecx, %ecx
	xorl	%eax, %eax
.LBB49_8:
	addb	1(%r13), %al
	addl	$1, %r12d
	movw	%r12w, 4(%r13)
	testq	%rcx, %rcx
	je	.LBB49_9
# %bb.10:
	movzbl	%al, %r12d
	movzwl	%r12w, %r15d
	movl	$24, %ebp
	xorl	%eax, %eax
	xorl	%ebx, %ebx
	jmp	.LBB49_11
	.p2align	4, 0x90
.LBB49_14:                              #   in Loop: Header=BB49_11 Depth=1
	addq	$1, %rbx
	addq	$32, %rbp
	cmpq	%rcx, %rbx
	jae	.LBB49_15
.LBB49_11:                              # =>This Inner Loop Header: Depth=1
	movq	8(%r13), %rdx
	movzwl	-8(%rdx,%rbp), %esi
	cmpw	%r12w, %si
	ja	.LBB49_14
# %bb.12:                               #   in Loop: Header=BB49_11 Depth=1
	movzwl	-6(%rdx,%rbp), %edi
	addl	%esi, %edi
	cmpl	%r15d, %edi
	jbe	.LBB49_14
# %bb.13:                               #   in Loop: Header=BB49_11 Depth=1
	movq	(%rdx,%rbp), %rdi
	movl	%r15d, %eax
	subl	%esi, %eax
	movzwl	%ax, %esi
	callq	*-24(%rdx,%rbp)
                                        # kill: def $al killed $al def $rax
	movq	16(%r13), %rcx
	jmp	.LBB49_14
.LBB49_9:
	xorl	%eax, %eax
.LBB49_15:
	andb	%r14b, %al
	movb	%al, (%r13)
	movb	6(%r13), %cl
	js	.LBB49_16
# %bb.18:
	andb	$127, %cl
	movb	%cl, 6(%r13)
	testb	%al, %al
	jne	.LBB49_17
# %bb.19:
	orb	$2, %cl
	jmp	.LBB49_20
.LBB49_16:
	orb	$-128, %cl
	movb	%cl, 6(%r13)
.LBB49_17:
	andb	$-3, %cl
.LBB49_20:
	movb	%cl, 6(%r13)
	movl	$4, %eax
	addq	$8, %rsp
	.cfi_def_cfa_offset 56
	popq	%rbx
	.cfi_def_cfa_offset 48
	popq	%r12
	.cfi_def_cfa_offset 40
	popq	%r13
	.cfi_def_cfa_offset 32
	popq	%r14
	.cfi_def_cfa_offset 24
	popq	%r15
	.cfi_def_cfa_offset 16
	popq	%rbp
	.cfi_def_cfa_offset 8
	retq
.Lfunc_end49:
	.size	AND_zpgx, .Lfunc_end49-AND_zpgx
	.cfi_endproc
                                        # -- End function
	.globl	AND_abss                # -- Begin function AND_abss
	.p2align	4, 0x90
	.type	AND_abss,@function
AND_abss:                               # @AND_abss
	.cfi_startproc
# %bb.0:
	pushq	%rbp
	.cfi_def_cfa_offset 16
	pushq	%r15
	.cfi_def_cfa_offset 24
	pushq	%r14
	.cfi_def_cfa_offset 32
	pushq	%r13
	.cfi_def_cfa_offset 40
	pushq	%r12
	.cfi_def_cfa_offset 48
	pushq	%rbx
	.cfi_def_cfa_offset 56
	pushq	%rax
	.cfi_def_cfa_offset 64
	.cfi_offset %rbx, -56
	.cfi_offset %r12, -48
	.cfi_offset %r13, -40
	.cfi_offset %r14, -32
	.cfi_offset %r15, -24
	.cfi_offset %rbp, -16
	movq	%rdi, %r13
	movb	(%rdi), %r12b
	movzwl	4(%rdi), %r14d
	movq	16(%rdi), %rcx
	testq	%rcx, %rcx
	movb	%r12b, 7(%rsp)          # 1-byte Spill
	je	.LBB50_12
# %bb.1:
	movzwl	%r14w, %r15d
	movl	$24, %ebx
	xorl	%eax, %eax
	xorl	%ebp, %ebp
	jmp	.LBB50_3
	.p2align	4, 0x90
.LBB50_2:                               #   in Loop: Header=BB50_3 Depth=1
	addq	$1, %rbp
	addq	$32, %rbx
	cmpq	%rcx, %rbp
	jae	.LBB50_6
.LBB50_3:                               # =>This Inner Loop Header: Depth=1
	movq	8(%r13), %rdx
	movzwl	-8(%rdx,%rbx), %esi
	cmpw	%si, %r14w
	jb	.LBB50_2
# %bb.4:                                #   in Loop: Header=BB50_3 Depth=1
	movzwl	-6(%rdx,%rbx), %edi
	addl	%esi, %edi
	cmpl	%r15d, %edi
	jbe	.LBB50_2
# %bb.5:                                #   in Loop: Header=BB50_3 Depth=1
	movq	(%rdx,%rbx), %rdi
	movl	%r14d, %eax
	subl	%esi, %eax
	movzwl	%ax, %esi
	callq	*-24(%rdx,%rbx)
                                        # kill: def $al killed $al def $rax
	movq	16(%r13), %rcx
	jmp	.LBB50_2
.LBB50_6:
	movl	4(%r13), %r14d
	testq	%rcx, %rcx
	je	.LBB50_12
# %bb.7:
	movzbl	%al, %r15d
	addl	$1, %r14d
	movzwl	%r14w, %r12d
	movl	$24, %ebx
	xorl	%eax, %eax
	xorl	%ebp, %ebp
	jmp	.LBB50_9
	.p2align	4, 0x90
.LBB50_8:                               #   in Loop: Header=BB50_9 Depth=1
	addq	$1, %rbp
	addq	$32, %rbx
	cmpq	%rcx, %rbp
	jae	.LBB50_13
.LBB50_9:                               # =>This Inner Loop Header: Depth=1
	movq	8(%r13), %rdx
	movzwl	-8(%rdx,%rbx), %esi
	cmpw	%si, %r14w
	jb	.LBB50_8
# %bb.10:                               #   in Loop: Header=BB50_9 Depth=1
	movzwl	-6(%rdx,%rbx), %edi
	addl	%esi, %edi
	cmpl	%r12d, %edi
	jbe	.LBB50_8
# %bb.11:                               #   in Loop: Header=BB50_9 Depth=1
	movq	(%rdx,%rbx), %rdi
	movl	%r14d, %eax
	subl	%esi, %eax
	movzwl	%ax, %esi
	callq	*-24(%rdx,%rbx)
                                        # kill: def $al killed $al def $rax
	movq	16(%r13), %rcx
	jmp	.LBB50_8
.LBB50_12:
	addl	$2, %r14d
	movw	%r14w, 4(%r13)
.LBB50_19:
	xorl	%eax, %eax
.LBB50_20:
	andb	7(%rsp), %al            # 1-byte Folded Reload
	movb	%al, (%r13)
	movb	6(%r13), %cl
	js	.LBB50_23
# %bb.21:
	andb	$127, %cl
	movb	%cl, 6(%r13)
	testb	%al, %al
	jne	.LBB50_24
# %bb.22:
	orb	$2, %cl
	jmp	.LBB50_25
.LBB50_13:
	addw	$2, 4(%r13)
	testq	%rcx, %rcx
	je	.LBB50_19
# %bb.14:
	movzbl	%al, %eax
	shll	$8, %eax
	movzwl	%r15w, %r12d
	orl	%eax, %r12d
	movzwl	%r12w, %r15d
	movl	$24, %ebp
	xorl	%eax, %eax
	xorl	%ebx, %ebx
	jmp	.LBB50_16
	.p2align	4, 0x90
.LBB50_15:                              #   in Loop: Header=BB50_16 Depth=1
	addq	$1, %rbx
	addq	$32, %rbp
	cmpq	%rcx, %rbx
	jae	.LBB50_20
.LBB50_16:                              # =>This Inner Loop Header: Depth=1
	movq	8(%r13), %rdx
	movzwl	-8(%rdx,%rbp), %esi
	cmpw	%si, %r12w
	jb	.LBB50_15
# %bb.17:                               #   in Loop: Header=BB50_16 Depth=1
	movzwl	-6(%rdx,%rbp), %edi
	addl	%esi, %edi
	cmpl	%r15d, %edi
	jbe	.LBB50_15
# %bb.18:                               #   in Loop: Header=BB50_16 Depth=1
	movq	(%rdx,%rbp), %rdi
	movl	%r12d, %eax
	subl	%esi, %eax
	movzwl	%ax, %esi
	callq	*-24(%rdx,%rbp)
                                        # kill: def $al killed $al def $rax
	movq	16(%r13), %rcx
	jmp	.LBB50_15
.LBB50_23:
	orb	$-128, %cl
	movb	%cl, 6(%r13)
.LBB50_24:
	andb	$-3, %cl
.LBB50_25:
	movb	%cl, 6(%r13)
	movl	$4, %eax
	addq	$8, %rsp
	.cfi_def_cfa_offset 56
	popq	%rbx
	.cfi_def_cfa_offset 48
	popq	%r12
	.cfi_def_cfa_offset 40
	popq	%r13
	.cfi_def_cfa_offset 32
	popq	%r14
	.cfi_def_cfa_offset 24
	popq	%r15
	.cfi_def_cfa_offset 16
	popq	%rbp
	.cfi_def_cfa_offset 8
	retq
.Lfunc_end50:
	.size	AND_abss, .Lfunc_end50-AND_abss
	.cfi_endproc
                                        # -- End function
	.globl	AND_absx                # -- Begin function AND_absx
	.p2align	4, 0x90
	.type	AND_absx,@function
AND_absx:                               # @AND_absx
	.cfi_startproc
# %bb.0:
	pushq	%rbp
	.cfi_def_cfa_offset 16
	pushq	%r15
	.cfi_def_cfa_offset 24
	pushq	%r14
	.cfi_def_cfa_offset 32
	pushq	%r13
	.cfi_def_cfa_offset 40
	pushq	%r12
	.cfi_def_cfa_offset 48
	pushq	%rbx
	.cfi_def_cfa_offset 56
	pushq	%rax
	.cfi_def_cfa_offset 64
	.cfi_offset %rbx, -56
	.cfi_offset %r12, -48
	.cfi_offset %r13, -40
	.cfi_offset %r14, -32
	.cfi_offset %r15, -24
	.cfi_offset %rbp, -16
	movq	%rdi, %r13
	movb	(%rdi), %al
	movzwl	4(%rdi), %r14d
	movq	16(%rdi), %rcx
	testq	%rcx, %rcx
	movb	%al, 7(%rsp)            # 1-byte Spill
	je	.LBB51_13
# %bb.1:
	movzwl	%r14w, %r15d
	movl	$24, %ebx
	xorl	%eax, %eax
	xorl	%ebp, %ebp
	jmp	.LBB51_3
	.p2align	4, 0x90
.LBB51_2:                               #   in Loop: Header=BB51_3 Depth=1
	addq	$1, %rbp
	addq	$32, %rbx
	cmpq	%rcx, %rbp
	jae	.LBB51_6
.LBB51_3:                               # =>This Inner Loop Header: Depth=1
	movq	8(%r13), %rdx
	movzwl	-8(%rdx,%rbx), %esi
	cmpw	%si, %r14w
	jb	.LBB51_2
# %bb.4:                                #   in Loop: Header=BB51_3 Depth=1
	movzwl	-6(%rdx,%rbx), %edi
	addl	%esi, %edi
	cmpl	%r15d, %edi
	jbe	.LBB51_2
# %bb.5:                                #   in Loop: Header=BB51_3 Depth=1
	movq	(%rdx,%rbx), %rdi
	movl	%r14d, %eax
	subl	%esi, %eax
	movzwl	%ax, %esi
	callq	*-24(%rdx,%rbx)
                                        # kill: def $al killed $al def $rax
	movq	16(%r13), %rcx
	jmp	.LBB51_2
.LBB51_6:
	movzbl	%al, %r15d
	movl	4(%r13), %r14d
	testq	%rcx, %rcx
	je	.LBB51_14
# %bb.7:
	addl	$1, %r14d
	movzwl	%r14w, %r12d
	movl	$24, %ebx
	xorl	%eax, %eax
	xorl	%ebp, %ebp
	jmp	.LBB51_9
	.p2align	4, 0x90
.LBB51_8:                               #   in Loop: Header=BB51_9 Depth=1
	addq	$1, %rbp
	addq	$32, %rbx
	cmpq	%rcx, %rbp
	jae	.LBB51_12
.LBB51_9:                               # =>This Inner Loop Header: Depth=1
	movq	8(%r13), %rdx
	movzwl	-8(%rdx,%rbx), %esi
	cmpw	%si, %r14w
	jb	.LBB51_8
# %bb.10:                               #   in Loop: Header=BB51_9 Depth=1
	movzwl	-6(%rdx,%rbx), %edi
	addl	%esi, %edi
	cmpl	%r12d, %edi
	jbe	.LBB51_8
# %bb.11:                               #   in Loop: Header=BB51_9 Depth=1
	movq	(%rdx,%rbx), %rdi
	movl	%r14d, %eax
	subl	%esi, %eax
	movzwl	%ax, %esi
	callq	*-24(%rdx,%rbx)
                                        # kill: def $al killed $al def $rax
	movq	16(%r13), %rcx
	jmp	.LBB51_8
.LBB51_12:
	movzwl	4(%r13), %r14d
	jmp	.LBB51_16
.LBB51_13:
	xorl	%ecx, %ecx
	xorl	%r15d, %r15d
	jmp	.LBB51_15
.LBB51_14:
	xorl	%ecx, %ecx
.LBB51_15:
	xorl	%eax, %eax
.LBB51_16:
	movzbl	1(%r13), %edx
	addl	$2, %r14d
	movw	%r14w, 4(%r13)
	testq	%rcx, %rcx
	je	.LBB51_22
# %bb.17:
	movzbl	%al, %eax
	shll	$8, %eax
	movzwl	%r15w, %r12d
	orl	%eax, %r12d
	addl	%edx, %r12d
	movzwl	%r12w, %r15d
	movl	$24, %ebx
	xorl	%eax, %eax
	xorl	%ebp, %ebp
	jmp	.LBB51_19
	.p2align	4, 0x90
.LBB51_18:                              #   in Loop: Header=BB51_19 Depth=1
	addq	$1, %rbp
	addq	$32, %rbx
	cmpq	%rcx, %rbp
	jae	.LBB51_23
.LBB51_19:                              # =>This Inner Loop Header: Depth=1
	movq	8(%r13), %rdx
	movzwl	-8(%rdx,%rbx), %esi
	cmpw	%si, %r12w
	jb	.LBB51_18
# %bb.20:                               #   in Loop: Header=BB51_19 Depth=1
	movzwl	-6(%rdx,%rbx), %edi
	addl	%esi, %edi
	cmpl	%r15d, %edi
	jbe	.LBB51_18
# %bb.21:                               #   in Loop: Header=BB51_19 Depth=1
	movq	(%rdx,%rbx), %rdi
	movl	%r12d, %eax
	subl	%esi, %eax
	movzwl	%ax, %esi
	callq	*-24(%rdx,%rbx)
                                        # kill: def $al killed $al def $rax
	movq	16(%r13), %rcx
	jmp	.LBB51_18
.LBB51_22:
	xorl	%eax, %eax
.LBB51_23:
	andb	7(%rsp), %al            # 1-byte Folded Reload
	movb	%al, (%r13)
	movb	6(%r13), %cl
	js	.LBB51_26
# %bb.24:
	andb	$127, %cl
	movb	%cl, 6(%r13)
	testb	%al, %al
	jne	.LBB51_27
# %bb.25:
	orb	$2, %cl
	jmp	.LBB51_28
.LBB51_26:
	orb	$-128, %cl
	movb	%cl, 6(%r13)
.LBB51_27:
	andb	$-3, %cl
.LBB51_28:
	movb	%cl, 6(%r13)
	movl	$4, %eax
	addq	$8, %rsp
	.cfi_def_cfa_offset 56
	popq	%rbx
	.cfi_def_cfa_offset 48
	popq	%r12
	.cfi_def_cfa_offset 40
	popq	%r13
	.cfi_def_cfa_offset 32
	popq	%r14
	.cfi_def_cfa_offset 24
	popq	%r15
	.cfi_def_cfa_offset 16
	popq	%rbp
	.cfi_def_cfa_offset 8
	retq
.Lfunc_end51:
	.size	AND_absx, .Lfunc_end51-AND_absx
	.cfi_endproc
                                        # -- End function
	.globl	AND_absy                # -- Begin function AND_absy
	.p2align	4, 0x90
	.type	AND_absy,@function
AND_absy:                               # @AND_absy
	.cfi_startproc
# %bb.0:
	pushq	%rbp
	.cfi_def_cfa_offset 16
	pushq	%r15
	.cfi_def_cfa_offset 24
	pushq	%r14
	.cfi_def_cfa_offset 32
	pushq	%r13
	.cfi_def_cfa_offset 40
	pushq	%r12
	.cfi_def_cfa_offset 48
	pushq	%rbx
	.cfi_def_cfa_offset 56
	pushq	%rax
	.cfi_def_cfa_offset 64
	.cfi_offset %rbx, -56
	.cfi_offset %r12, -48
	.cfi_offset %r13, -40
	.cfi_offset %r14, -32
	.cfi_offset %r15, -24
	.cfi_offset %rbp, -16
	movq	%rdi, %r13
	movb	(%rdi), %al
	movzwl	4(%rdi), %r14d
	movq	16(%rdi), %rcx
	testq	%rcx, %rcx
	movb	%al, 7(%rsp)            # 1-byte Spill
	je	.LBB52_13
# %bb.1:
	movzwl	%r14w, %r15d
	movl	$24, %ebx
	xorl	%eax, %eax
	xorl	%ebp, %ebp
	jmp	.LBB52_3
	.p2align	4, 0x90
.LBB52_2:                               #   in Loop: Header=BB52_3 Depth=1
	addq	$1, %rbp
	addq	$32, %rbx
	cmpq	%rcx, %rbp
	jae	.LBB52_6
.LBB52_3:                               # =>This Inner Loop Header: Depth=1
	movq	8(%r13), %rdx
	movzwl	-8(%rdx,%rbx), %esi
	cmpw	%si, %r14w
	jb	.LBB52_2
# %bb.4:                                #   in Loop: Header=BB52_3 Depth=1
	movzwl	-6(%rdx,%rbx), %edi
	addl	%esi, %edi
	cmpl	%r15d, %edi
	jbe	.LBB52_2
# %bb.5:                                #   in Loop: Header=BB52_3 Depth=1
	movq	(%rdx,%rbx), %rdi
	movl	%r14d, %eax
	subl	%esi, %eax
	movzwl	%ax, %esi
	callq	*-24(%rdx,%rbx)
                                        # kill: def $al killed $al def $rax
	movq	16(%r13), %rcx
	jmp	.LBB52_2
.LBB52_6:
	movzbl	%al, %r15d
	movl	4(%r13), %r14d
	testq	%rcx, %rcx
	je	.LBB52_14
# %bb.7:
	addl	$1, %r14d
	movzwl	%r14w, %r12d
	movl	$24, %ebx
	xorl	%eax, %eax
	xorl	%ebp, %ebp
	jmp	.LBB52_9
	.p2align	4, 0x90
.LBB52_8:                               #   in Loop: Header=BB52_9 Depth=1
	addq	$1, %rbp
	addq	$32, %rbx
	cmpq	%rcx, %rbp
	jae	.LBB52_12
.LBB52_9:                               # =>This Inner Loop Header: Depth=1
	movq	8(%r13), %rdx
	movzwl	-8(%rdx,%rbx), %esi
	cmpw	%si, %r14w
	jb	.LBB52_8
# %bb.10:                               #   in Loop: Header=BB52_9 Depth=1
	movzwl	-6(%rdx,%rbx), %edi
	addl	%esi, %edi
	cmpl	%r12d, %edi
	jbe	.LBB52_8
# %bb.11:                               #   in Loop: Header=BB52_9 Depth=1
	movq	(%rdx,%rbx), %rdi
	movl	%r14d, %eax
	subl	%esi, %eax
	movzwl	%ax, %esi
	callq	*-24(%rdx,%rbx)
                                        # kill: def $al killed $al def $rax
	movq	16(%r13), %rcx
	jmp	.LBB52_8
.LBB52_12:
	movzwl	4(%r13), %r14d
	jmp	.LBB52_16
.LBB52_13:
	xorl	%ecx, %ecx
	xorl	%r15d, %r15d
	jmp	.LBB52_15
.LBB52_14:
	xorl	%ecx, %ecx
.LBB52_15:
	xorl	%eax, %eax
.LBB52_16:
	movzbl	2(%r13), %edx
	addl	$2, %r14d
	movw	%r14w, 4(%r13)
	testq	%rcx, %rcx
	je	.LBB52_22
# %bb.17:
	movzbl	%al, %eax
	shll	$8, %eax
	movzwl	%r15w, %r12d
	orl	%eax, %r12d
	addl	%edx, %r12d
	movzwl	%r12w, %r15d
	movl	$24, %ebx
	xorl	%eax, %eax
	xorl	%ebp, %ebp
	jmp	.LBB52_19
	.p2align	4, 0x90
.LBB52_18:                              #   in Loop: Header=BB52_19 Depth=1
	addq	$1, %rbp
	addq	$32, %rbx
	cmpq	%rcx, %rbp
	jae	.LBB52_23
.LBB52_19:                              # =>This Inner Loop Header: Depth=1
	movq	8(%r13), %rdx
	movzwl	-8(%rdx,%rbx), %esi
	cmpw	%si, %r12w
	jb	.LBB52_18
# %bb.20:                               #   in Loop: Header=BB52_19 Depth=1
	movzwl	-6(%rdx,%rbx), %edi
	addl	%esi, %edi
	cmpl	%r15d, %edi
	jbe	.LBB52_18
# %bb.21:                               #   in Loop: Header=BB52_19 Depth=1
	movq	(%rdx,%rbx), %rdi
	movl	%r12d, %eax
	subl	%esi, %eax
	movzwl	%ax, %esi
	callq	*-24(%rdx,%rbx)
                                        # kill: def $al killed $al def $rax
	movq	16(%r13), %rcx
	jmp	.LBB52_18
.LBB52_22:
	xorl	%eax, %eax
.LBB52_23:
	andb	7(%rsp), %al            # 1-byte Folded Reload
	movb	%al, (%r13)
	movb	6(%r13), %cl
	js	.LBB52_26
# %bb.24:
	andb	$127, %cl
	movb	%cl, 6(%r13)
	testb	%al, %al
	jne	.LBB52_27
# %bb.25:
	orb	$2, %cl
	jmp	.LBB52_28
.LBB52_26:
	orb	$-128, %cl
	movb	%cl, 6(%r13)
.LBB52_27:
	andb	$-3, %cl
.LBB52_28:
	movb	%cl, 6(%r13)
	movl	$4, %eax
	addq	$8, %rsp
	.cfi_def_cfa_offset 56
	popq	%rbx
	.cfi_def_cfa_offset 48
	popq	%r12
	.cfi_def_cfa_offset 40
	popq	%r13
	.cfi_def_cfa_offset 32
	popq	%r14
	.cfi_def_cfa_offset 24
	popq	%r15
	.cfi_def_cfa_offset 16
	popq	%rbp
	.cfi_def_cfa_offset 8
	retq
.Lfunc_end52:
	.size	AND_absy, .Lfunc_end52-AND_absy
	.cfi_endproc
                                        # -- End function
	.globl	AND_xind                # -- Begin function AND_xind
	.p2align	4, 0x90
	.type	AND_xind,@function
AND_xind:                               # @AND_xind
	.cfi_startproc
# %bb.0:
	pushq	%rbp
	.cfi_def_cfa_offset 16
	pushq	%r15
	.cfi_def_cfa_offset 24
	pushq	%r14
	.cfi_def_cfa_offset 32
	pushq	%r13
	.cfi_def_cfa_offset 40
	pushq	%r12
	.cfi_def_cfa_offset 48
	pushq	%rbx
	.cfi_def_cfa_offset 56
	pushq	%rax
	.cfi_def_cfa_offset 64
	.cfi_offset %rbx, -56
	.cfi_offset %r12, -48
	.cfi_offset %r13, -40
	.cfi_offset %r14, -32
	.cfi_offset %r15, -24
	.cfi_offset %rbp, -16
	movq	%rdi, %r13
	movb	(%rdi), %r14b
	callq	xind
	movq	16(%r13), %rcx
	testq	%rcx, %rcx
	je	.LBB53_1
# %bb.2:
	movl	%eax, %r12d
	movzwl	%ax, %r15d
	movl	$24, %ebp
	xorl	%eax, %eax
	xorl	%ebx, %ebx
	jmp	.LBB53_3
	.p2align	4, 0x90
.LBB53_6:                               #   in Loop: Header=BB53_3 Depth=1
	addq	$1, %rbx
	addq	$32, %rbp
	cmpq	%rcx, %rbx
	jae	.LBB53_7
.LBB53_3:                               # =>This Inner Loop Header: Depth=1
	movq	8(%r13), %rdx
	movzwl	-8(%rdx,%rbp), %esi
	cmpw	%si, %r12w
	jb	.LBB53_6
# %bb.4:                                #   in Loop: Header=BB53_3 Depth=1
	movzwl	-6(%rdx,%rbp), %edi
	addl	%esi, %edi
	cmpl	%r15d, %edi
	jbe	.LBB53_6
# %bb.5:                                #   in Loop: Header=BB53_3 Depth=1
	movq	(%rdx,%rbp), %rdi
	movl	%r15d, %eax
	subl	%esi, %eax
	movzwl	%ax, %esi
	callq	*-24(%rdx,%rbp)
                                        # kill: def $al killed $al def $rax
	movq	16(%r13), %rcx
	jmp	.LBB53_6
.LBB53_1:
	xorl	%eax, %eax
.LBB53_7:
	andb	%r14b, %al
	movb	%al, (%r13)
	movb	6(%r13), %cl
	js	.LBB53_8
# %bb.10:
	andb	$127, %cl
	movb	%cl, 6(%r13)
	testb	%al, %al
	jne	.LBB53_9
# %bb.11:
	orb	$2, %cl
	jmp	.LBB53_12
.LBB53_8:
	orb	$-128, %cl
	movb	%cl, 6(%r13)
.LBB53_9:
	andb	$-3, %cl
.LBB53_12:
	movb	%cl, 6(%r13)
	movl	$6, %eax
	addq	$8, %rsp
	.cfi_def_cfa_offset 56
	popq	%rbx
	.cfi_def_cfa_offset 48
	popq	%r12
	.cfi_def_cfa_offset 40
	popq	%r13
	.cfi_def_cfa_offset 32
	popq	%r14
	.cfi_def_cfa_offset 24
	popq	%r15
	.cfi_def_cfa_offset 16
	popq	%rbp
	.cfi_def_cfa_offset 8
	retq
.Lfunc_end53:
	.size	AND_xind, .Lfunc_end53-AND_xind
	.cfi_endproc
                                        # -- End function
	.globl	AND_indy                # -- Begin function AND_indy
	.p2align	4, 0x90
	.type	AND_indy,@function
AND_indy:                               # @AND_indy
	.cfi_startproc
# %bb.0:
	pushq	%rbp
	.cfi_def_cfa_offset 16
	pushq	%r15
	.cfi_def_cfa_offset 24
	pushq	%r14
	.cfi_def_cfa_offset 32
	pushq	%r13
	.cfi_def_cfa_offset 40
	pushq	%r12
	.cfi_def_cfa_offset 48
	pushq	%rbx
	.cfi_def_cfa_offset 56
	pushq	%rax
	.cfi_def_cfa_offset 64
	.cfi_offset %rbx, -56
	.cfi_offset %r12, -48
	.cfi_offset %r13, -40
	.cfi_offset %r14, -32
	.cfi_offset %r15, -24
	.cfi_offset %rbp, -16
	movq	%rdi, %r13
	movb	(%rdi), %r14b
	callq	indy
	movq	16(%r13), %rcx
	testq	%rcx, %rcx
	je	.LBB54_1
# %bb.2:
	movl	%eax, %r12d
	movzwl	%ax, %r15d
	movl	$24, %ebp
	xorl	%eax, %eax
	xorl	%ebx, %ebx
	jmp	.LBB54_3
	.p2align	4, 0x90
.LBB54_6:                               #   in Loop: Header=BB54_3 Depth=1
	addq	$1, %rbx
	addq	$32, %rbp
	cmpq	%rcx, %rbx
	jae	.LBB54_7
.LBB54_3:                               # =>This Inner Loop Header: Depth=1
	movq	8(%r13), %rdx
	movzwl	-8(%rdx,%rbp), %esi
	cmpw	%si, %r12w
	jb	.LBB54_6
# %bb.4:                                #   in Loop: Header=BB54_3 Depth=1
	movzwl	-6(%rdx,%rbp), %edi
	addl	%esi, %edi
	cmpl	%r15d, %edi
	jbe	.LBB54_6
# %bb.5:                                #   in Loop: Header=BB54_3 Depth=1
	movq	(%rdx,%rbp), %rdi
	movl	%r15d, %eax
	subl	%esi, %eax
	movzwl	%ax, %esi
	callq	*-24(%rdx,%rbp)
                                        # kill: def $al killed $al def $rax
	movq	16(%r13), %rcx
	jmp	.LBB54_6
.LBB54_1:
	xorl	%eax, %eax
.LBB54_7:
	andb	%r14b, %al
	movb	%al, (%r13)
	movb	6(%r13), %cl
	js	.LBB54_8
# %bb.10:
	andb	$127, %cl
	movb	%cl, 6(%r13)
	testb	%al, %al
	jne	.LBB54_9
# %bb.11:
	orb	$2, %cl
	jmp	.LBB54_12
.LBB54_8:
	orb	$-128, %cl
	movb	%cl, 6(%r13)
.LBB54_9:
	andb	$-3, %cl
.LBB54_12:
	movb	%cl, 6(%r13)
	movl	$5, %eax
	addq	$8, %rsp
	.cfi_def_cfa_offset 56
	popq	%rbx
	.cfi_def_cfa_offset 48
	popq	%r12
	.cfi_def_cfa_offset 40
	popq	%r13
	.cfi_def_cfa_offset 32
	popq	%r14
	.cfi_def_cfa_offset 24
	popq	%r15
	.cfi_def_cfa_offset 16
	popq	%rbp
	.cfi_def_cfa_offset 8
	retq
.Lfunc_end54:
	.size	AND_indy, .Lfunc_end54-AND_indy
	.cfi_endproc
                                        # -- End function
	.globl	ROL_zpg                 # -- Begin function ROL_zpg
	.p2align	4, 0x90
	.type	ROL_zpg,@function
ROL_zpg:                                # @ROL_zpg
	.cfi_startproc
# %bb.0:
	pushq	%rbp
	.cfi_def_cfa_offset 16
	pushq	%r15
	.cfi_def_cfa_offset 24
	pushq	%r14
	.cfi_def_cfa_offset 32
	pushq	%r13
	.cfi_def_cfa_offset 40
	pushq	%r12
	.cfi_def_cfa_offset 48
	pushq	%rbx
	.cfi_def_cfa_offset 56
	pushq	%rax
	.cfi_def_cfa_offset 64
	.cfi_offset %rbx, -56
	.cfi_offset %r12, -48
	.cfi_offset %r13, -40
	.cfi_offset %r14, -32
	.cfi_offset %r15, -24
	.cfi_offset %rbp, -16
	movq	%rdi, %r13
	movzwl	4(%rdi), %r14d
	movq	16(%rdi), %rcx
	testq	%rcx, %rcx
	je	.LBB55_1
# %bb.3:
	movl	$24, %ebx
	xorl	%eax, %eax
	xorl	%ebp, %ebp
	jmp	.LBB55_4
	.p2align	4, 0x90
.LBB55_7:                               #   in Loop: Header=BB55_4 Depth=1
	addq	$1, %rbp
	addq	$32, %rbx
	cmpq	%rcx, %rbp
	jae	.LBB55_8
.LBB55_4:                               # =>This Inner Loop Header: Depth=1
	movq	8(%r13), %rdx
	movzwl	-8(%rdx,%rbx), %esi
	cmpw	%si, %r14w
	jb	.LBB55_7
# %bb.5:                                #   in Loop: Header=BB55_4 Depth=1
	movzwl	-6(%rdx,%rbx), %edi
	addl	%esi, %edi
	cmpl	%r14d, %edi
	jbe	.LBB55_7
# %bb.6:                                #   in Loop: Header=BB55_4 Depth=1
	movq	(%rdx,%rbx), %rdi
	movl	%r14d, %eax
	subl	%esi, %eax
	movzwl	%ax, %esi
	callq	*-24(%rdx,%rbx)
                                        # kill: def $al killed $al def $rax
	movq	16(%r13), %rcx
	jmp	.LBB55_7
.LBB55_8:
	addw	$1, 4(%r13)
	testq	%rcx, %rcx
	je	.LBB55_2
# %bb.9:
	movzbl	%al, %r12d
	movl	$24, %ebx
	xorl	%r14d, %r14d
	xorl	%ebp, %ebp
	jmp	.LBB55_10
	.p2align	4, 0x90
.LBB55_13:                              #   in Loop: Header=BB55_10 Depth=1
	addq	$1, %rbp
	addq	$32, %rbx
	cmpq	%rcx, %rbp
	jae	.LBB55_14
.LBB55_10:                              # =>This Inner Loop Header: Depth=1
	movq	8(%r13), %rdx
	movzwl	-8(%rdx,%rbx), %eax
	cmpw	%r12w, %ax
	ja	.LBB55_13
# %bb.11:                               #   in Loop: Header=BB55_10 Depth=1
	movzwl	-6(%rdx,%rbx), %esi
	addl	%eax, %esi
	cmpl	%r12d, %esi
	jbe	.LBB55_13
# %bb.12:                               #   in Loop: Header=BB55_10 Depth=1
	movq	(%rdx,%rbx), %rdi
	movzwl	%r12w, %ecx
	subl	%eax, %ecx
	movzwl	%cx, %esi
	callq	*-24(%rdx,%rbx)
	movl	%eax, %r14d
	movq	16(%r13), %rcx
	jmp	.LBB55_13
.LBB55_14:
	movl	%r14d, %eax
	rolb	%al
	movb	%al, 3(%rsp)            # 1-byte Spill
	testq	%rcx, %rcx
	je	.LBB55_20
# %bb.15:
	movl	$24, %ebp
	xorl	%ebx, %ebx
	movzwl	%r12w, %eax
	movl	%eax, 4(%rsp)           # 4-byte Spill
	movzbl	3(%rsp), %r15d          # 1-byte Folded Reload
	jmp	.LBB55_16
	.p2align	4, 0x90
.LBB55_19:                              #   in Loop: Header=BB55_16 Depth=1
	addq	$1, %rbx
	addq	$32, %rbp
	cmpq	%rcx, %rbx
	jae	.LBB55_20
.LBB55_16:                              # =>This Inner Loop Header: Depth=1
	movq	8(%r13), %rax
	movzwl	-8(%rax,%rbp), %edx
	cmpw	%r12w, %dx
	ja	.LBB55_19
# %bb.17:                               #   in Loop: Header=BB55_16 Depth=1
	movzwl	-6(%rax,%rbp), %esi
	addl	%edx, %esi
	cmpl	%r12d, %esi
	jbe	.LBB55_19
# %bb.18:                               #   in Loop: Header=BB55_16 Depth=1
	movq	(%rax,%rbp), %rdi
	movl	4(%rsp), %ecx           # 4-byte Reload
	subl	%edx, %ecx
	movzwl	%cx, %esi
	movl	%r15d, %edx
	callq	*-16(%rax,%rbp)
	movq	16(%r13), %rcx
	jmp	.LBB55_19
.LBB55_20:
	movb	6(%r13), %cl
	leaq	6(%r13), %rax
	movb	3(%rsp), %dl            # 1-byte Reload
	testb	%dl, %dl
	js	.LBB55_21
# %bb.23:
	andb	$127, %cl
	movb	%cl, (%rax)
	testb	%dl, %dl
	jne	.LBB55_22
	jmp	.LBB55_24
.LBB55_1:
	addl	$1, %r14d
	movw	%r14w, 4(%r13)
.LBB55_2:
	leaq	6(%r13), %rax
	movb	6(%r13), %cl
	andb	$127, %cl
	movb	%cl, 6(%r13)
	xorl	%r14d, %r14d
.LBB55_24:
	orb	$2, %cl
	jmp	.LBB55_25
.LBB55_21:
	orb	$-128, %cl
	movb	%cl, (%rax)
.LBB55_22:
	andb	$-3, %cl
.LBB55_25:
	movl	%ecx, %edx
	andb	$-2, %dl
	orb	$1, %cl
	testb	%r14b, %r14b
	movzbl	%cl, %ecx
	movzbl	%dl, %edx
	cmovsl	%ecx, %edx
	movb	%dl, (%rax)
	movl	$5, %eax
	addq	$8, %rsp
	.cfi_def_cfa_offset 56
	popq	%rbx
	.cfi_def_cfa_offset 48
	popq	%r12
	.cfi_def_cfa_offset 40
	popq	%r13
	.cfi_def_cfa_offset 32
	popq	%r14
	.cfi_def_cfa_offset 24
	popq	%r15
	.cfi_def_cfa_offset 16
	popq	%rbp
	.cfi_def_cfa_offset 8
	retq
.Lfunc_end55:
	.size	ROL_zpg, .Lfunc_end55-ROL_zpg
	.cfi_endproc
                                        # -- End function
	.globl	ROL_zpgx                # -- Begin function ROL_zpgx
	.p2align	4, 0x90
	.type	ROL_zpgx,@function
ROL_zpgx:                               # @ROL_zpgx
	.cfi_startproc
# %bb.0:
	pushq	%rbp
	.cfi_def_cfa_offset 16
	pushq	%r15
	.cfi_def_cfa_offset 24
	pushq	%r14
	.cfi_def_cfa_offset 32
	pushq	%r13
	.cfi_def_cfa_offset 40
	pushq	%r12
	.cfi_def_cfa_offset 48
	pushq	%rbx
	.cfi_def_cfa_offset 56
	subq	$24, %rsp
	.cfi_def_cfa_offset 80
	.cfi_offset %rbx, -56
	.cfi_offset %r12, -48
	.cfi_offset %r13, -40
	.cfi_offset %r14, -32
	.cfi_offset %r15, -24
	.cfi_offset %rbp, -16
	movq	%rdi, %r14
	movzwl	4(%rdi), %r15d
	movq	16(%rdi), %rcx
	testq	%rcx, %rcx
	je	.LBB56_1
# %bb.2:
	movzwl	%r15w, %r12d
	movl	$24, %ebp
	xorl	%eax, %eax
	xorl	%ebx, %ebx
	jmp	.LBB56_3
	.p2align	4, 0x90
.LBB56_6:                               #   in Loop: Header=BB56_3 Depth=1
	addq	$1, %rbx
	addq	$32, %rbp
	cmpq	%rcx, %rbx
	jae	.LBB56_7
.LBB56_3:                               # =>This Inner Loop Header: Depth=1
	movq	8(%r14), %rdx
	movzwl	-8(%rdx,%rbp), %esi
	cmpw	%si, %r15w
	jb	.LBB56_6
# %bb.4:                                #   in Loop: Header=BB56_3 Depth=1
	movzwl	-6(%rdx,%rbp), %edi
	addl	%esi, %edi
	cmpl	%r12d, %edi
	jbe	.LBB56_6
# %bb.5:                                #   in Loop: Header=BB56_3 Depth=1
	movq	(%rdx,%rbp), %rdi
	movl	%r15d, %eax
	subl	%esi, %eax
	movzwl	%ax, %esi
	callq	*-24(%rdx,%rbp)
                                        # kill: def $al killed $al def $rax
	movq	16(%r14), %rcx
	jmp	.LBB56_6
.LBB56_7:
	movzwl	4(%r14), %r15d
	jmp	.LBB56_8
.LBB56_1:
	xorl	%ecx, %ecx
	xorl	%eax, %eax
.LBB56_8:
	addb	1(%r14), %al
	addl	$1, %r15d
	movw	%r15w, 4(%r14)
	testq	%rcx, %rcx
	je	.LBB56_9
# %bb.10:
	movzbl	%al, %r13d
	movzwl	%r13w, %r12d
	movl	$24, %ebp
	xorl	%eax, %eax
	xorl	%ebx, %ebx
	jmp	.LBB56_11
	.p2align	4, 0x90
.LBB56_14:                              #   in Loop: Header=BB56_11 Depth=1
	addq	$1, %rbx
	addq	$32, %rbp
	cmpq	%rcx, %rbx
	jae	.LBB56_15
.LBB56_11:                              # =>This Inner Loop Header: Depth=1
	movq	8(%r14), %r8
	movzwl	-8(%r8,%rbp), %edx
	cmpw	%r13w, %dx
	ja	.LBB56_14
# %bb.12:                               #   in Loop: Header=BB56_11 Depth=1
	movzwl	-6(%r8,%rbp), %esi
	addl	%edx, %esi
	cmpl	%r12d, %esi
	jbe	.LBB56_14
# %bb.13:                               #   in Loop: Header=BB56_11 Depth=1
	movq	(%r8,%rbp), %rdi
	movl	%r12d, %ecx
	subl	%edx, %ecx
	movzwl	%cx, %esi
	callq	*-24(%r8,%rbp)
                                        # kill: def $al killed $al def $rax
	movq	16(%r14), %rcx
	jmp	.LBB56_14
.LBB56_15:
	movq	%rax, 16(%rsp)          # 8-byte Spill
                                        # kill: def $al killed $al killed $rax
	rolb	%al
	movb	%al, 15(%rsp)           # 1-byte Spill
	testq	%rcx, %rcx
	je	.LBB56_21
# %bb.16:
	movl	$24, %ebx
	xorl	%ebp, %ebp
	movzbl	15(%rsp), %r15d         # 1-byte Folded Reload
	jmp	.LBB56_17
	.p2align	4, 0x90
.LBB56_20:                              #   in Loop: Header=BB56_17 Depth=1
	addq	$1, %rbp
	addq	$32, %rbx
	cmpq	%rcx, %rbp
	jae	.LBB56_21
.LBB56_17:                              # =>This Inner Loop Header: Depth=1
	movq	8(%r14), %rax
	movzwl	-8(%rax,%rbx), %edx
	cmpw	%r13w, %dx
	ja	.LBB56_20
# %bb.18:                               #   in Loop: Header=BB56_17 Depth=1
	movzwl	-6(%rax,%rbx), %esi
	addl	%edx, %esi
	cmpl	%r12d, %esi
	jbe	.LBB56_20
# %bb.19:                               #   in Loop: Header=BB56_17 Depth=1
	movq	(%rax,%rbx), %rdi
	movl	%r12d, %ecx
	subl	%edx, %ecx
	movzwl	%cx, %esi
	movl	%r15d, %edx
	callq	*-16(%rax,%rbx)
	movq	16(%r14), %rcx
	jmp	.LBB56_20
.LBB56_21:
	movb	6(%r14), %cl
	leaq	6(%r14), %rax
	movb	15(%rsp), %dl           # 1-byte Reload
	testb	%dl, %dl
	js	.LBB56_22
# %bb.24:
	andb	$127, %cl
	movb	%cl, (%rax)
	testb	%dl, %dl
	jne	.LBB56_23
# %bb.25:
	movq	16(%rsp), %rsi          # 8-byte Reload
	jmp	.LBB56_26
.LBB56_9:
	leaq	6(%r14), %rax
	movb	6(%r14), %cl
	andb	$127, %cl
	movb	%cl, 6(%r14)
	xorl	%esi, %esi
.LBB56_26:
	orb	$2, %cl
	jmp	.LBB56_27
.LBB56_22:
	orb	$-128, %cl
	movb	%cl, (%rax)
.LBB56_23:
	movq	16(%rsp), %rsi          # 8-byte Reload
	andb	$-3, %cl
.LBB56_27:
	movl	%ecx, %edx
	andb	$-2, %dl
	orb	$1, %cl
	testb	%sil, %sil
	movzbl	%cl, %ecx
	movzbl	%dl, %edx
	cmovsl	%ecx, %edx
	movb	%dl, (%rax)
	movl	$6, %eax
	addq	$24, %rsp
	.cfi_def_cfa_offset 56
	popq	%rbx
	.cfi_def_cfa_offset 48
	popq	%r12
	.cfi_def_cfa_offset 40
	popq	%r13
	.cfi_def_cfa_offset 32
	popq	%r14
	.cfi_def_cfa_offset 24
	popq	%r15
	.cfi_def_cfa_offset 16
	popq	%rbp
	.cfi_def_cfa_offset 8
	retq
.Lfunc_end56:
	.size	ROL_zpgx, .Lfunc_end56-ROL_zpgx
	.cfi_endproc
                                        # -- End function
	.globl	ROL_abss                # -- Begin function ROL_abss
	.p2align	4, 0x90
	.type	ROL_abss,@function
ROL_abss:                               # @ROL_abss
	.cfi_startproc
# %bb.0:
	pushq	%rbp
	.cfi_def_cfa_offset 16
	pushq	%r15
	.cfi_def_cfa_offset 24
	pushq	%r14
	.cfi_def_cfa_offset 32
	pushq	%r13
	.cfi_def_cfa_offset 40
	pushq	%r12
	.cfi_def_cfa_offset 48
	pushq	%rbx
	.cfi_def_cfa_offset 56
	pushq	%rax
	.cfi_def_cfa_offset 64
	.cfi_offset %rbx, -56
	.cfi_offset %r12, -48
	.cfi_offset %r13, -40
	.cfi_offset %r14, -32
	.cfi_offset %r15, -24
	.cfi_offset %rbp, -16
	movq	%rdi, %r13
	movzwl	4(%rdi), %r12d
	movq	16(%rdi), %rcx
	testq	%rcx, %rcx
	je	.LBB57_31
# %bb.1:
	movzwl	%r12w, %r14d
	movl	$24, %ebx
	xorl	%eax, %eax
	xorl	%ebp, %ebp
	jmp	.LBB57_2
	.p2align	4, 0x90
.LBB57_5:                               #   in Loop: Header=BB57_2 Depth=1
	addq	$1, %rbp
	addq	$32, %rbx
	cmpq	%rcx, %rbp
	jae	.LBB57_6
.LBB57_2:                               # =>This Inner Loop Header: Depth=1
	movq	8(%r13), %rdx
	movzwl	-8(%rdx,%rbx), %esi
	cmpw	%si, %r12w
	jb	.LBB57_5
# %bb.3:                                #   in Loop: Header=BB57_2 Depth=1
	movzwl	-6(%rdx,%rbx), %edi
	addl	%esi, %edi
	cmpl	%r14d, %edi
	jbe	.LBB57_5
# %bb.4:                                #   in Loop: Header=BB57_2 Depth=1
	movq	(%rdx,%rbx), %rdi
	movl	%r12d, %eax
	subl	%esi, %eax
	movzwl	%ax, %esi
	callq	*-24(%rdx,%rbx)
                                        # kill: def $al killed $al def $rax
	movq	16(%r13), %rcx
	jmp	.LBB57_5
.LBB57_6:
	movl	4(%r13), %r12d
	testq	%rcx, %rcx
	je	.LBB57_31
# %bb.7:
	movzbl	%al, %r14d
	addl	$1, %r12d
	movzwl	%r12w, %r15d
	movl	$24, %ebx
	xorl	%eax, %eax
	xorl	%ebp, %ebp
	jmp	.LBB57_8
	.p2align	4, 0x90
.LBB57_11:                              #   in Loop: Header=BB57_8 Depth=1
	addq	$1, %rbp
	addq	$32, %rbx
	cmpq	%rcx, %rbp
	jae	.LBB57_12
.LBB57_8:                               # =>This Inner Loop Header: Depth=1
	movq	8(%r13), %rdx
	movzwl	-8(%rdx,%rbx), %esi
	cmpw	%si, %r12w
	jb	.LBB57_11
# %bb.9:                                #   in Loop: Header=BB57_8 Depth=1
	movzwl	-6(%rdx,%rbx), %edi
	addl	%esi, %edi
	cmpl	%r15d, %edi
	jbe	.LBB57_11
# %bb.10:                               #   in Loop: Header=BB57_8 Depth=1
	movq	(%rdx,%rbx), %rdi
	movl	%r12d, %eax
	subl	%esi, %eax
	movzwl	%ax, %esi
	callq	*-24(%rdx,%rbx)
                                        # kill: def $al killed $al def $rax
	movq	16(%r13), %rcx
	jmp	.LBB57_11
.LBB57_31:
	addl	$2, %r12d
	movw	%r12w, 4(%r13)
.LBB57_13:
	leaq	6(%r13), %rax
	movb	6(%r13), %cl
	andb	$127, %cl
	movb	%cl, 6(%r13)
	xorl	%r14d, %r14d
.LBB57_29:
	orb	$2, %cl
.LBB57_30:
	movl	%ecx, %edx
	andb	$-2, %dl
	orb	$1, %cl
	testb	%r14b, %r14b
	movzbl	%cl, %ecx
	movzbl	%dl, %edx
	cmovsl	%ecx, %edx
	movb	%dl, (%rax)
	movl	$6, %eax
	addq	$8, %rsp
	.cfi_def_cfa_offset 56
	popq	%rbx
	.cfi_def_cfa_offset 48
	popq	%r12
	.cfi_def_cfa_offset 40
	popq	%r13
	.cfi_def_cfa_offset 32
	popq	%r14
	.cfi_def_cfa_offset 24
	popq	%r15
	.cfi_def_cfa_offset 16
	popq	%rbp
	.cfi_def_cfa_offset 8
	retq
.LBB57_12:
	.cfi_def_cfa_offset 64
	addw	$2, 4(%r13)
	testq	%rcx, %rcx
	je	.LBB57_13
# %bb.14:
	movzbl	%al, %eax
	shll	$8, %eax
	movzwl	%r14w, %r15d
	orl	%eax, %r15d
	movzwl	%r15w, %r12d
	movl	$24, %ebx
	xorl	%r14d, %r14d
	xorl	%ebp, %ebp
	jmp	.LBB57_15
	.p2align	4, 0x90
.LBB57_18:                              #   in Loop: Header=BB57_15 Depth=1
	addq	$1, %rbp
	addq	$32, %rbx
	cmpq	%rcx, %rbp
	jae	.LBB57_19
.LBB57_15:                              # =>This Inner Loop Header: Depth=1
	movq	8(%r13), %rdx
	movzwl	-8(%rdx,%rbx), %eax
	cmpw	%ax, %r15w
	jb	.LBB57_18
# %bb.16:                               #   in Loop: Header=BB57_15 Depth=1
	movzwl	-6(%rdx,%rbx), %esi
	addl	%eax, %esi
	cmpl	%r12d, %esi
	jbe	.LBB57_18
# %bb.17:                               #   in Loop: Header=BB57_15 Depth=1
	movq	(%rdx,%rbx), %rdi
	movl	%r15d, %ecx
	subl	%eax, %ecx
	movzwl	%cx, %esi
	callq	*-24(%rdx,%rbx)
	movl	%eax, %r14d
	movq	16(%r13), %rcx
	jmp	.LBB57_18
.LBB57_19:
	movl	%r14d, %eax
	rolb	%al
	movb	%al, 3(%rsp)            # 1-byte Spill
	testq	%rcx, %rcx
	je	.LBB57_25
# %bb.20:
	movl	$24, %ebx
	xorl	%ebp, %ebp
	movzbl	3(%rsp), %eax           # 1-byte Folded Reload
	movl	%eax, 4(%rsp)           # 4-byte Spill
	jmp	.LBB57_21
	.p2align	4, 0x90
.LBB57_24:                              #   in Loop: Header=BB57_21 Depth=1
	addq	$1, %rbp
	addq	$32, %rbx
	cmpq	%rcx, %rbp
	jae	.LBB57_25
.LBB57_21:                              # =>This Inner Loop Header: Depth=1
	movq	8(%r13), %rax
	movzwl	-8(%rax,%rbx), %edx
	cmpw	%dx, %r15w
	jb	.LBB57_24
# %bb.22:                               #   in Loop: Header=BB57_21 Depth=1
	movzwl	-6(%rax,%rbx), %esi
	addl	%edx, %esi
	cmpl	%r12d, %esi
	jbe	.LBB57_24
# %bb.23:                               #   in Loop: Header=BB57_21 Depth=1
	movq	(%rax,%rbx), %rdi
	movl	%r15d, %ecx
	subl	%edx, %ecx
	movzwl	%cx, %esi
	movl	4(%rsp), %edx           # 4-byte Reload
	callq	*-16(%rax,%rbx)
	movq	16(%r13), %rcx
	jmp	.LBB57_24
.LBB57_25:
	movb	6(%r13), %cl
	leaq	6(%r13), %rax
	movb	3(%rsp), %dl            # 1-byte Reload
	testb	%dl, %dl
	js	.LBB57_26
# %bb.28:
	andb	$127, %cl
	movb	%cl, (%rax)
	testb	%dl, %dl
	jne	.LBB57_27
	jmp	.LBB57_29
.LBB57_26:
	orb	$-128, %cl
	movb	%cl, (%rax)
.LBB57_27:
	andb	$-3, %cl
	jmp	.LBB57_30
.Lfunc_end57:
	.size	ROL_abss, .Lfunc_end57-ROL_abss
	.cfi_endproc
                                        # -- End function
	.globl	ROL_absx                # -- Begin function ROL_absx
	.p2align	4, 0x90
	.type	ROL_absx,@function
ROL_absx:                               # @ROL_absx
	.cfi_startproc
# %bb.0:
	pushq	%rbp
	.cfi_def_cfa_offset 16
	pushq	%r15
	.cfi_def_cfa_offset 24
	pushq	%r14
	.cfi_def_cfa_offset 32
	pushq	%r13
	.cfi_def_cfa_offset 40
	pushq	%r12
	.cfi_def_cfa_offset 48
	pushq	%rbx
	.cfi_def_cfa_offset 56
	subq	$24, %rsp
	.cfi_def_cfa_offset 80
	.cfi_offset %rbx, -56
	.cfi_offset %r12, -48
	.cfi_offset %r13, -40
	.cfi_offset %r14, -32
	.cfi_offset %r15, -24
	.cfi_offset %rbp, -16
	movq	%rdi, %r13
	movzwl	4(%rdi), %r12d
	movq	16(%rdi), %rcx
	testq	%rcx, %rcx
	je	.LBB58_13
# %bb.1:
	movzwl	%r12w, %r14d
	movl	$24, %ebp
	xorl	%eax, %eax
	xorl	%ebx, %ebx
	jmp	.LBB58_3
	.p2align	4, 0x90
.LBB58_2:                               #   in Loop: Header=BB58_3 Depth=1
	addq	$1, %rbx
	addq	$32, %rbp
	cmpq	%rcx, %rbx
	jae	.LBB58_6
.LBB58_3:                               # =>This Inner Loop Header: Depth=1
	movq	8(%r13), %rdx
	movzwl	-8(%rdx,%rbp), %esi
	cmpw	%si, %r12w
	jb	.LBB58_2
# %bb.4:                                #   in Loop: Header=BB58_3 Depth=1
	movzwl	-6(%rdx,%rbp), %edi
	addl	%esi, %edi
	cmpl	%r14d, %edi
	jbe	.LBB58_2
# %bb.5:                                #   in Loop: Header=BB58_3 Depth=1
	movq	(%rdx,%rbp), %rdi
	movl	%r12d, %eax
	subl	%esi, %eax
	movzwl	%ax, %esi
	callq	*-24(%rdx,%rbp)
                                        # kill: def $al killed $al def $rax
	movq	16(%r13), %rcx
	jmp	.LBB58_2
.LBB58_6:
	movzbl	%al, %r14d
	movl	4(%r13), %r12d
	testq	%rcx, %rcx
	je	.LBB58_14
# %bb.7:
	addl	$1, %r12d
	movzwl	%r12w, %r15d
	movl	$24, %ebp
	xorl	%eax, %eax
	xorl	%ebx, %ebx
	jmp	.LBB58_9
	.p2align	4, 0x90
.LBB58_8:                               #   in Loop: Header=BB58_9 Depth=1
	addq	$1, %rbx
	addq	$32, %rbp
	cmpq	%rcx, %rbx
	jae	.LBB58_12
.LBB58_9:                               # =>This Inner Loop Header: Depth=1
	movq	8(%r13), %rdx
	movzwl	-8(%rdx,%rbp), %esi
	cmpw	%si, %r12w
	jb	.LBB58_8
# %bb.10:                               #   in Loop: Header=BB58_9 Depth=1
	movzwl	-6(%rdx,%rbp), %edi
	addl	%esi, %edi
	cmpl	%r15d, %edi
	jbe	.LBB58_8
# %bb.11:                               #   in Loop: Header=BB58_9 Depth=1
	movq	(%rdx,%rbp), %rdi
	movl	%r12d, %eax
	subl	%esi, %eax
	movzwl	%ax, %esi
	callq	*-24(%rdx,%rbp)
                                        # kill: def $al killed $al def $rax
	movq	16(%r13), %rcx
	jmp	.LBB58_8
.LBB58_12:
	movzwl	4(%r13), %r12d
	jmp	.LBB58_16
.LBB58_13:
	xorl	%ecx, %ecx
	xorl	%r14d, %r14d
	jmp	.LBB58_15
.LBB58_14:
	xorl	%ecx, %ecx
.LBB58_15:
	xorl	%eax, %eax
.LBB58_16:
	movzbl	1(%r13), %edx
	addl	$2, %r12d
	movw	%r12w, 4(%r13)
	testq	%rcx, %rcx
	je	.LBB58_31
# %bb.17:
	movzbl	%al, %eax
	shll	$8, %eax
	movzwl	%r14w, %r14d
	orl	%eax, %r14d
	addl	%edx, %r14d
	movzwl	%r14w, %r12d
	movl	$24, %ebx
	xorl	%eax, %eax
	xorl	%ebp, %ebp
	jmp	.LBB58_19
	.p2align	4, 0x90
.LBB58_18:                              #   in Loop: Header=BB58_19 Depth=1
	addq	$1, %rbp
	addq	$32, %rbx
	cmpq	%rcx, %rbp
	jae	.LBB58_22
.LBB58_19:                              # =>This Inner Loop Header: Depth=1
	movq	8(%r13), %r8
	movzwl	-8(%r8,%rbx), %edx
	cmpw	%dx, %r14w
	jb	.LBB58_18
# %bb.20:                               #   in Loop: Header=BB58_19 Depth=1
	movzwl	-6(%r8,%rbx), %esi
	addl	%edx, %esi
	cmpl	%r12d, %esi
	jbe	.LBB58_18
# %bb.21:                               #   in Loop: Header=BB58_19 Depth=1
	movq	(%r8,%rbx), %rdi
	movl	%r14d, %ecx
	subl	%edx, %ecx
	movzwl	%cx, %esi
	callq	*-24(%r8,%rbx)
                                        # kill: def $al killed $al def $rax
	movq	16(%r13), %rcx
	jmp	.LBB58_18
.LBB58_22:
	movq	%rax, 16(%rsp)          # 8-byte Spill
                                        # kill: def $al killed $al killed $rax
	rolb	%al
	movb	%al, 15(%rsp)           # 1-byte Spill
	testq	%rcx, %rcx
	je	.LBB58_28
# %bb.23:
	movl	$24, %ebp
	xorl	%ebx, %ebx
	movzbl	15(%rsp), %r15d         # 1-byte Folded Reload
	jmp	.LBB58_25
	.p2align	4, 0x90
.LBB58_24:                              #   in Loop: Header=BB58_25 Depth=1
	addq	$1, %rbx
	addq	$32, %rbp
	cmpq	%rcx, %rbx
	jae	.LBB58_28
.LBB58_25:                              # =>This Inner Loop Header: Depth=1
	movq	8(%r13), %rax
	movzwl	-8(%rax,%rbp), %edx
	cmpw	%dx, %r14w
	jb	.LBB58_24
# %bb.26:                               #   in Loop: Header=BB58_25 Depth=1
	movzwl	-6(%rax,%rbp), %esi
	addl	%edx, %esi
	cmpl	%r12d, %esi
	jbe	.LBB58_24
# %bb.27:                               #   in Loop: Header=BB58_25 Depth=1
	movq	(%rax,%rbp), %rdi
	movl	%r14d, %ecx
	subl	%edx, %ecx
	movzwl	%cx, %esi
	movl	%r15d, %edx
	callq	*-16(%rax,%rbp)
	movq	16(%r13), %rcx
	jmp	.LBB58_24
.LBB58_28:
	movb	6(%r13), %cl
	leaq	6(%r13), %rax
	movb	15(%rsp), %dl           # 1-byte Reload
	testb	%dl, %dl
	js	.LBB58_33
# %bb.29:
	andb	$127, %cl
	movb	%cl, (%rax)
	testb	%dl, %dl
	jne	.LBB58_34
# %bb.30:
	movq	16(%rsp), %rsi          # 8-byte Reload
	jmp	.LBB58_32
.LBB58_31:
	leaq	6(%r13), %rax
	movb	6(%r13), %cl
	andb	$127, %cl
	movb	%cl, 6(%r13)
	xorl	%esi, %esi
.LBB58_32:
	orb	$2, %cl
	jmp	.LBB58_35
.LBB58_33:
	orb	$-128, %cl
	movb	%cl, (%rax)
.LBB58_34:
	movq	16(%rsp), %rsi          # 8-byte Reload
	andb	$-3, %cl
.LBB58_35:
	movl	%ecx, %edx
	andb	$-2, %dl
	orb	$1, %cl
	testb	%sil, %sil
	movzbl	%cl, %ecx
	movzbl	%dl, %edx
	cmovsl	%ecx, %edx
	movb	%dl, (%rax)
	movl	$7, %eax
	addq	$24, %rsp
	.cfi_def_cfa_offset 56
	popq	%rbx
	.cfi_def_cfa_offset 48
	popq	%r12
	.cfi_def_cfa_offset 40
	popq	%r13
	.cfi_def_cfa_offset 32
	popq	%r14
	.cfi_def_cfa_offset 24
	popq	%r15
	.cfi_def_cfa_offset 16
	popq	%rbp
	.cfi_def_cfa_offset 8
	retq
.Lfunc_end58:
	.size	ROL_absx, .Lfunc_end58-ROL_absx
	.cfi_endproc
                                        # -- End function
	.globl	ROLA                    # -- Begin function ROLA
	.p2align	4, 0x90
	.type	ROLA,@function
ROLA:                                   # @ROLA
	.cfi_startproc
# %bb.0:
	movb	(%rdi), %al
	movb	6(%rdi), %cl
	movl	%eax, %edx
	rolb	%dl
	movb	%dl, (%rdi)
	testb	%dl, %dl
	js	.LBB59_1
# %bb.3:
	andb	$127, %cl
	movb	%cl, 6(%rdi)
	testb	%dl, %dl
	jne	.LBB59_2
# %bb.4:
	orb	$2, %cl
	jmp	.LBB59_5
.LBB59_1:
	orb	$-128, %cl
	movb	%cl, 6(%rdi)
.LBB59_2:
	andb	$-3, %cl
.LBB59_5:
	movl	%ecx, %edx
	andb	$-2, %dl
	orb	$1, %cl
	testb	%al, %al
	movzbl	%cl, %eax
	movzbl	%dl, %ecx
	cmovsl	%eax, %ecx
	movb	%cl, 6(%rdi)
	movl	$2, %eax
	retq
.Lfunc_end59:
	.size	ROLA, .Lfunc_end59-ROLA
	.cfi_endproc
                                        # -- End function
	.globl	JMP_abss                # -- Begin function JMP_abss
	.p2align	4, 0x90
	.type	JMP_abss,@function
JMP_abss:                               # @JMP_abss
	.cfi_startproc
# %bb.0:
	pushq	%rbp
	.cfi_def_cfa_offset 16
	pushq	%r15
	.cfi_def_cfa_offset 24
	pushq	%r14
	.cfi_def_cfa_offset 32
	pushq	%r13
	.cfi_def_cfa_offset 40
	pushq	%r12
	.cfi_def_cfa_offset 48
	pushq	%rbx
	.cfi_def_cfa_offset 56
	pushq	%rax
	.cfi_def_cfa_offset 64
	.cfi_offset %rbx, -56
	.cfi_offset %r12, -48
	.cfi_offset %r13, -40
	.cfi_offset %r14, -32
	.cfi_offset %r15, -24
	.cfi_offset %rbp, -16
	movq	%rdi, %r12
	movq	16(%rdi), %rcx
	testq	%rcx, %rcx
	je	.LBB60_12
# %bb.1:
	movzwl	4(%r12), %r14d
	movl	$24, %ebx
	xorl	%eax, %eax
	xorl	%ebp, %ebp
	jmp	.LBB60_3
	.p2align	4, 0x90
.LBB60_2:                               #   in Loop: Header=BB60_3 Depth=1
	addq	$1, %rbp
	addq	$32, %rbx
	cmpq	%rcx, %rbp
	jae	.LBB60_6
.LBB60_3:                               # =>This Inner Loop Header: Depth=1
	movq	8(%r12), %rdx
	movzwl	-8(%rdx,%rbx), %esi
	cmpw	%si, %r14w
	jb	.LBB60_2
# %bb.4:                                #   in Loop: Header=BB60_3 Depth=1
	movzwl	-6(%rdx,%rbx), %edi
	addl	%esi, %edi
	cmpl	%r14d, %edi
	jbe	.LBB60_2
# %bb.5:                                #   in Loop: Header=BB60_3 Depth=1
	movq	(%rdx,%rbx), %rdi
	movl	%r14d, %eax
	subl	%esi, %eax
	movzwl	%ax, %esi
	callq	*-24(%rdx,%rbx)
                                        # kill: def $al killed $al def $rax
	movq	16(%r12), %rcx
	jmp	.LBB60_2
.LBB60_6:
	movzbl	%al, %r14d
	testq	%rcx, %rcx
	je	.LBB60_13
# %bb.7:
	movl	4(%r12), %r13d
	addl	$1, %r13d
	movzwl	%r13w, %r15d
	movl	$24, %ebx
	xorl	%eax, %eax
	xorl	%ebp, %ebp
	jmp	.LBB60_9
	.p2align	4, 0x90
.LBB60_8:                               #   in Loop: Header=BB60_9 Depth=1
	addq	$1, %rbp
	addq	$32, %rbx
	cmpq	%rcx, %rbp
	jae	.LBB60_14
.LBB60_9:                               # =>This Inner Loop Header: Depth=1
	movq	8(%r12), %rdx
	movzwl	-8(%rdx,%rbx), %esi
	cmpw	%si, %r13w
	jb	.LBB60_8
# %bb.10:                               #   in Loop: Header=BB60_9 Depth=1
	movzwl	-6(%rdx,%rbx), %edi
	addl	%esi, %edi
	cmpl	%r15d, %edi
	jbe	.LBB60_8
# %bb.11:                               #   in Loop: Header=BB60_9 Depth=1
	movq	(%rdx,%rbx), %rdi
	movl	%r13d, %eax
	subl	%esi, %eax
	movzwl	%ax, %esi
	callq	*-24(%rdx,%rbx)
                                        # kill: def $al killed $al def $rax
	movq	16(%r12), %rcx
	jmp	.LBB60_8
.LBB60_12:
	xorl	%r14d, %r14d
.LBB60_13:
	xorl	%eax, %eax
.LBB60_14:
	movzbl	%al, %eax
	shll	$8, %eax
	movzwl	%r14w, %ecx
	orl	%eax, %ecx
	movw	%cx, 4(%r12)
	movl	$3, %eax
	addq	$8, %rsp
	.cfi_def_cfa_offset 56
	popq	%rbx
	.cfi_def_cfa_offset 48
	popq	%r12
	.cfi_def_cfa_offset 40
	popq	%r13
	.cfi_def_cfa_offset 32
	popq	%r14
	.cfi_def_cfa_offset 24
	popq	%r15
	.cfi_def_cfa_offset 16
	popq	%rbp
	.cfi_def_cfa_offset 8
	retq
.Lfunc_end60:
	.size	JMP_abss, .Lfunc_end60-JMP_abss
	.cfi_endproc
                                        # -- End function
	.globl	JMP_ind                 # -- Begin function JMP_ind
	.p2align	4, 0x90
	.type	JMP_ind,@function
JMP_ind:                                # @JMP_ind
	.cfi_startproc
# %bb.0:
	pushq	%rbx
	.cfi_def_cfa_offset 16
	.cfi_offset %rbx, -16
	movq	%rdi, %rbx
	callq	ind
	movw	%ax, 4(%rbx)
	movl	$5, %eax
	popq	%rbx
	.cfi_def_cfa_offset 8
	retq
.Lfunc_end61:
	.size	JMP_ind, .Lfunc_end61-JMP_ind
	.cfi_endproc
                                        # -- End function
	.globl	LSR_zpg                 # -- Begin function LSR_zpg
	.p2align	4, 0x90
	.type	LSR_zpg,@function
LSR_zpg:                                # @LSR_zpg
	.cfi_startproc
# %bb.0:
	pushq	%rbp
	.cfi_def_cfa_offset 16
	pushq	%r15
	.cfi_def_cfa_offset 24
	pushq	%r14
	.cfi_def_cfa_offset 32
	pushq	%r13
	.cfi_def_cfa_offset 40
	pushq	%r12
	.cfi_def_cfa_offset 48
	pushq	%rbx
	.cfi_def_cfa_offset 56
	pushq	%rax
	.cfi_def_cfa_offset 64
	.cfi_offset %rbx, -56
	.cfi_offset %r12, -48
	.cfi_offset %r13, -40
	.cfi_offset %r14, -32
	.cfi_offset %r15, -24
	.cfi_offset %rbp, -16
	movq	%rdi, %r13
	movzwl	4(%rdi), %r14d
	movq	16(%rdi), %rcx
	testq	%rcx, %rcx
	je	.LBB62_20
# %bb.1:
	movl	$24, %ebx
	xorl	%eax, %eax
	xorl	%ebp, %ebp
	jmp	.LBB62_3
	.p2align	4, 0x90
.LBB62_2:                               #   in Loop: Header=BB62_3 Depth=1
	addq	$1, %rbp
	addq	$32, %rbx
	cmpq	%rcx, %rbp
	jae	.LBB62_6
.LBB62_3:                               # =>This Inner Loop Header: Depth=1
	movq	8(%r13), %rdx
	movzwl	-8(%rdx,%rbx), %esi
	cmpw	%si, %r14w
	jb	.LBB62_2
# %bb.4:                                #   in Loop: Header=BB62_3 Depth=1
	movzwl	-6(%rdx,%rbx), %edi
	addl	%esi, %edi
	cmpl	%r14d, %edi
	jbe	.LBB62_2
# %bb.5:                                #   in Loop: Header=BB62_3 Depth=1
	movq	(%rdx,%rbx), %rdi
	movl	%r14d, %eax
	subl	%esi, %eax
	movzwl	%ax, %esi
	callq	*-24(%rdx,%rbx)
                                        # kill: def $al killed $al def $rax
	movq	16(%r13), %rcx
	jmp	.LBB62_2
.LBB62_6:
	addw	$1, 4(%r13)
	testq	%rcx, %rcx
	je	.LBB62_21
# %bb.7:
	movzbl	%al, %r12d
	movl	$24, %ebx
	xorl	%r14d, %r14d
	xorl	%ebp, %ebp
	jmp	.LBB62_9
	.p2align	4, 0x90
.LBB62_8:                               #   in Loop: Header=BB62_9 Depth=1
	addq	$1, %rbp
	addq	$32, %rbx
	cmpq	%rcx, %rbp
	jae	.LBB62_12
.LBB62_9:                               # =>This Inner Loop Header: Depth=1
	movq	8(%r13), %rdx
	movzwl	-8(%rdx,%rbx), %eax
	cmpw	%r12w, %ax
	ja	.LBB62_8
# %bb.10:                               #   in Loop: Header=BB62_9 Depth=1
	movzwl	-6(%rdx,%rbx), %esi
	addl	%eax, %esi
	cmpl	%r12d, %esi
	jbe	.LBB62_8
# %bb.11:                               #   in Loop: Header=BB62_9 Depth=1
	movq	(%rdx,%rbx), %rdi
	movzwl	%r12w, %ecx
	subl	%eax, %ecx
	movzwl	%cx, %esi
	callq	*-24(%rdx,%rbx)
	movl	%eax, %r14d
	movq	16(%r13), %rcx
	jmp	.LBB62_8
.LBB62_12:
	movl	%r14d, %eax
	shrb	%al
	movb	%al, 3(%rsp)            # 1-byte Spill
	testq	%rcx, %rcx
	je	.LBB62_18
# %bb.13:
	movl	$24, %ebp
	xorl	%ebx, %ebx
	movzwl	%r12w, %eax
	movl	%eax, 4(%rsp)           # 4-byte Spill
	movzbl	3(%rsp), %r15d          # 1-byte Folded Reload
	jmp	.LBB62_15
	.p2align	4, 0x90
.LBB62_14:                              #   in Loop: Header=BB62_15 Depth=1
	addq	$1, %rbx
	addq	$32, %rbp
	cmpq	%rcx, %rbx
	jae	.LBB62_18
.LBB62_15:                              # =>This Inner Loop Header: Depth=1
	movq	8(%r13), %rax
	movzwl	-8(%rax,%rbp), %edx
	cmpw	%r12w, %dx
	ja	.LBB62_14
# %bb.16:                               #   in Loop: Header=BB62_15 Depth=1
	movzwl	-6(%rax,%rbp), %esi
	addl	%edx, %esi
	cmpl	%r12d, %esi
	jbe	.LBB62_14
# %bb.17:                               #   in Loop: Header=BB62_15 Depth=1
	movq	(%rax,%rbp), %rdi
	movl	4(%rsp), %ecx           # 4-byte Reload
	subl	%edx, %ecx
	movzwl	%cx, %esi
	movl	%r15d, %edx
	callq	*-16(%rax,%rbp)
	movq	16(%r13), %rcx
	jmp	.LBB62_14
.LBB62_18:
	movb	6(%r13), %dl
	movl	%edx, %ecx
	andb	$127, %cl
	movb	%cl, 6(%r13)
	leaq	6(%r13), %rax
	cmpb	$0, 3(%rsp)             # 1-byte Folded Reload
	je	.LBB62_22
# %bb.19:
	andb	$125, %dl
	movl	%edx, %ecx
	jmp	.LBB62_23
.LBB62_20:
	addl	$1, %r14d
	movw	%r14w, 4(%r13)
.LBB62_21:
	leaq	6(%r13), %rax
	movb	6(%r13), %cl
	andb	$127, %cl
	movb	%cl, 6(%r13)
	xorl	%r14d, %r14d
.LBB62_22:
	orb	$2, %cl
.LBB62_23:
	movl	%ecx, %edx
	andb	$126, %dl
	orb	$1, %cl
	testb	$1, %r14b
	movzbl	%dl, %edx
	movzbl	%cl, %ecx
	cmovel	%edx, %ecx
	movb	%cl, (%rax)
	movl	$3, %eax
	addq	$8, %rsp
	.cfi_def_cfa_offset 56
	popq	%rbx
	.cfi_def_cfa_offset 48
	popq	%r12
	.cfi_def_cfa_offset 40
	popq	%r13
	.cfi_def_cfa_offset 32
	popq	%r14
	.cfi_def_cfa_offset 24
	popq	%r15
	.cfi_def_cfa_offset 16
	popq	%rbp
	.cfi_def_cfa_offset 8
	retq
.Lfunc_end62:
	.size	LSR_zpg, .Lfunc_end62-LSR_zpg
	.cfi_endproc
                                        # -- End function
	.globl	LSR_zpgx                # -- Begin function LSR_zpgx
	.p2align	4, 0x90
	.type	LSR_zpgx,@function
LSR_zpgx:                               # @LSR_zpgx
	.cfi_startproc
# %bb.0:
	pushq	%rbp
	.cfi_def_cfa_offset 16
	pushq	%r15
	.cfi_def_cfa_offset 24
	pushq	%r14
	.cfi_def_cfa_offset 32
	pushq	%r13
	.cfi_def_cfa_offset 40
